ARM GAS  /tmp/ccf5v8Q9.s 			page 1


   1              		.cpu cortex-m4
   2              		.arch armv7e-m
   3              		.fpu fpv4-sp-d16
   4              		.eabi_attribute 27, 1
   5              		.eabi_attribute 28, 1
   6              		.eabi_attribute 20, 1
   7              		.eabi_attribute 21, 1
   8              		.eabi_attribute 23, 3
   9              		.eabi_attribute 24, 1
  10              		.eabi_attribute 25, 1
  11              		.eabi_attribute 26, 1
  12              		.eabi_attribute 30, 1
  13              		.eabi_attribute 34, 1
  14              		.eabi_attribute 18, 4
  15              		.file	"gpio.c"
  16              		.text
  17              	.Ltext0:
  18              		.cfi_sections	.debug_frame
  19              		.section	.text.MX_GPIO_Init,"ax",%progbits
  20              		.align	1
  21              		.global	MX_GPIO_Init
  22              		.syntax unified
  23              		.thumb
  24              		.thumb_func
  26              	MX_GPIO_Init:
  27              	.LFB130:
  28              		.file 1 "Core/Src/gpio.c"
   1:Core/Src/gpio.c **** /* USER CODE BEGIN Header */
   2:Core/Src/gpio.c **** /**
   3:Core/Src/gpio.c ****   ******************************************************************************
   4:Core/Src/gpio.c ****   * @file    gpio.c
   5:Core/Src/gpio.c ****   * @brief   This file provides code for the configuration
   6:Core/Src/gpio.c ****   *          of all used GPIO pins.
   7:Core/Src/gpio.c ****   ******************************************************************************
   8:Core/Src/gpio.c ****   * @attention
   9:Core/Src/gpio.c ****   *
  10:Core/Src/gpio.c ****   * Copyright (c) 2023 STMicroelectronics.
  11:Core/Src/gpio.c ****   * All rights reserved.
  12:Core/Src/gpio.c ****   *
  13:Core/Src/gpio.c ****   * This software is licensed under terms that can be found in the LICENSE file
  14:Core/Src/gpio.c ****   * in the root directory of this software component.
  15:Core/Src/gpio.c ****   * If no LICENSE file comes with this software, it is provided AS-IS.
  16:Core/Src/gpio.c ****   *
  17:Core/Src/gpio.c ****   ******************************************************************************
  18:Core/Src/gpio.c ****   */
  19:Core/Src/gpio.c **** /* USER CODE END Header */
  20:Core/Src/gpio.c **** 
  21:Core/Src/gpio.c **** /* Includes ------------------------------------------------------------------*/
  22:Core/Src/gpio.c **** #include "gpio.h"
  23:Core/Src/gpio.c **** 
  24:Core/Src/gpio.c **** /* USER CODE BEGIN 0 */
  25:Core/Src/gpio.c **** 
  26:Core/Src/gpio.c **** /* USER CODE END 0 */
  27:Core/Src/gpio.c **** 
  28:Core/Src/gpio.c **** /*----------------------------------------------------------------------------*/
  29:Core/Src/gpio.c **** /* Configure GPIO                                                             */
  30:Core/Src/gpio.c **** /*----------------------------------------------------------------------------*/
ARM GAS  /tmp/ccf5v8Q9.s 			page 2


  31:Core/Src/gpio.c **** /* USER CODE BEGIN 1 */
  32:Core/Src/gpio.c **** 
  33:Core/Src/gpio.c **** /* USER CODE END 1 */
  34:Core/Src/gpio.c **** 
  35:Core/Src/gpio.c **** /** Configure pins as
  36:Core/Src/gpio.c ****         * Analog
  37:Core/Src/gpio.c ****         * Input
  38:Core/Src/gpio.c ****         * Output
  39:Core/Src/gpio.c ****         * EVENT_OUT
  40:Core/Src/gpio.c ****         * EXTI
  41:Core/Src/gpio.c ****      PC3   ------> I2S2_SD
  42:Core/Src/gpio.c ****      PA4   ------> I2S3_WS
  43:Core/Src/gpio.c ****      PB10   ------> I2S2_CK
  44:Core/Src/gpio.c ****      PC7   ------> I2S3_MCK
  45:Core/Src/gpio.c ****      PA9   ------> USB_OTG_FS_VBUS
  46:Core/Src/gpio.c ****      PA10   ------> USB_OTG_FS_ID
  47:Core/Src/gpio.c ****      PA11   ------> USB_OTG_FS_DM
  48:Core/Src/gpio.c ****      PA12   ------> USB_OTG_FS_DP
  49:Core/Src/gpio.c ****      PC10   ------> I2S3_CK
  50:Core/Src/gpio.c ****      PC12   ------> I2S3_SD
  51:Core/Src/gpio.c **** */
  52:Core/Src/gpio.c **** void MX_GPIO_Init(void)
  53:Core/Src/gpio.c **** {
  29              		.loc 1 53 1 view -0
  30              		.cfi_startproc
  31              		@ args = 0, pretend = 0, frame = 48
  32              		@ frame_needed = 0, uses_anonymous_args = 0
  33 0000 2DE9F04F 		push	{r4, r5, r6, r7, r8, r9, r10, fp, lr}
  34              	.LCFI0:
  35              		.cfi_def_cfa_offset 36
  36              		.cfi_offset 4, -36
  37              		.cfi_offset 5, -32
  38              		.cfi_offset 6, -28
  39              		.cfi_offset 7, -24
  40              		.cfi_offset 8, -20
  41              		.cfi_offset 9, -16
  42              		.cfi_offset 10, -12
  43              		.cfi_offset 11, -8
  44              		.cfi_offset 14, -4
  45 0004 8DB0     		sub	sp, sp, #52
  46              	.LCFI1:
  47              		.cfi_def_cfa_offset 88
  54:Core/Src/gpio.c **** 
  55:Core/Src/gpio.c ****   GPIO_InitTypeDef GPIO_InitStruct = {0};
  48              		.loc 1 55 3 view .LVU1
  49              		.loc 1 55 20 is_stmt 0 view .LVU2
  50 0006 0024     		movs	r4, #0
  51 0008 0794     		str	r4, [sp, #28]
  52 000a 0894     		str	r4, [sp, #32]
  53 000c 0994     		str	r4, [sp, #36]
  54 000e 0A94     		str	r4, [sp, #40]
  55 0010 0B94     		str	r4, [sp, #44]
  56:Core/Src/gpio.c **** 
  57:Core/Src/gpio.c ****   /* GPIO Ports Clock Enable */
  58:Core/Src/gpio.c ****   __HAL_RCC_GPIOE_CLK_ENABLE();
  56              		.loc 1 58 3 is_stmt 1 view .LVU3
  57              	.LBB2:
ARM GAS  /tmp/ccf5v8Q9.s 			page 3


  58              		.loc 1 58 3 view .LVU4
  59 0012 0194     		str	r4, [sp, #4]
  60              		.loc 1 58 3 view .LVU5
  61 0014 6C4B     		ldr	r3, .L3
  62 0016 1A6B     		ldr	r2, [r3, #48]
  63 0018 42F01002 		orr	r2, r2, #16
  64 001c 1A63     		str	r2, [r3, #48]
  65              		.loc 1 58 3 view .LVU6
  66 001e 1A6B     		ldr	r2, [r3, #48]
  67 0020 02F01002 		and	r2, r2, #16
  68 0024 0192     		str	r2, [sp, #4]
  69              		.loc 1 58 3 view .LVU7
  70 0026 019A     		ldr	r2, [sp, #4]
  71              	.LBE2:
  72              		.loc 1 58 3 view .LVU8
  59:Core/Src/gpio.c ****   __HAL_RCC_GPIOC_CLK_ENABLE();
  73              		.loc 1 59 3 view .LVU9
  74              	.LBB3:
  75              		.loc 1 59 3 view .LVU10
  76 0028 0294     		str	r4, [sp, #8]
  77              		.loc 1 59 3 view .LVU11
  78 002a 1A6B     		ldr	r2, [r3, #48]
  79 002c 42F00402 		orr	r2, r2, #4
  80 0030 1A63     		str	r2, [r3, #48]
  81              		.loc 1 59 3 view .LVU12
  82 0032 1A6B     		ldr	r2, [r3, #48]
  83 0034 02F00402 		and	r2, r2, #4
  84 0038 0292     		str	r2, [sp, #8]
  85              		.loc 1 59 3 view .LVU13
  86 003a 029A     		ldr	r2, [sp, #8]
  87              	.LBE3:
  88              		.loc 1 59 3 view .LVU14
  60:Core/Src/gpio.c ****   __HAL_RCC_GPIOH_CLK_ENABLE();
  89              		.loc 1 60 3 view .LVU15
  90              	.LBB4:
  91              		.loc 1 60 3 view .LVU16
  92 003c 0394     		str	r4, [sp, #12]
  93              		.loc 1 60 3 view .LVU17
  94 003e 1A6B     		ldr	r2, [r3, #48]
  95 0040 42F08002 		orr	r2, r2, #128
  96 0044 1A63     		str	r2, [r3, #48]
  97              		.loc 1 60 3 view .LVU18
  98 0046 1A6B     		ldr	r2, [r3, #48]
  99 0048 02F08002 		and	r2, r2, #128
 100 004c 0392     		str	r2, [sp, #12]
 101              		.loc 1 60 3 view .LVU19
 102 004e 039A     		ldr	r2, [sp, #12]
 103              	.LBE4:
 104              		.loc 1 60 3 view .LVU20
  61:Core/Src/gpio.c ****   __HAL_RCC_GPIOA_CLK_ENABLE();
 105              		.loc 1 61 3 view .LVU21
 106              	.LBB5:
 107              		.loc 1 61 3 view .LVU22
 108 0050 0494     		str	r4, [sp, #16]
 109              		.loc 1 61 3 view .LVU23
 110 0052 1A6B     		ldr	r2, [r3, #48]
 111 0054 42F00102 		orr	r2, r2, #1
ARM GAS  /tmp/ccf5v8Q9.s 			page 4


 112 0058 1A63     		str	r2, [r3, #48]
 113              		.loc 1 61 3 view .LVU24
 114 005a 1A6B     		ldr	r2, [r3, #48]
 115 005c 02F00102 		and	r2, r2, #1
 116 0060 0492     		str	r2, [sp, #16]
 117              		.loc 1 61 3 view .LVU25
 118 0062 049A     		ldr	r2, [sp, #16]
 119              	.LBE5:
 120              		.loc 1 61 3 view .LVU26
  62:Core/Src/gpio.c ****   __HAL_RCC_GPIOB_CLK_ENABLE();
 121              		.loc 1 62 3 view .LVU27
 122              	.LBB6:
 123              		.loc 1 62 3 view .LVU28
 124 0064 0594     		str	r4, [sp, #20]
 125              		.loc 1 62 3 view .LVU29
 126 0066 1A6B     		ldr	r2, [r3, #48]
 127 0068 42F00202 		orr	r2, r2, #2
 128 006c 1A63     		str	r2, [r3, #48]
 129              		.loc 1 62 3 view .LVU30
 130 006e 1A6B     		ldr	r2, [r3, #48]
 131 0070 02F00202 		and	r2, r2, #2
 132 0074 0592     		str	r2, [sp, #20]
 133              		.loc 1 62 3 view .LVU31
 134 0076 059A     		ldr	r2, [sp, #20]
 135              	.LBE6:
 136              		.loc 1 62 3 view .LVU32
  63:Core/Src/gpio.c ****   __HAL_RCC_GPIOD_CLK_ENABLE();
 137              		.loc 1 63 3 view .LVU33
 138              	.LBB7:
 139              		.loc 1 63 3 view .LVU34
 140 0078 0694     		str	r4, [sp, #24]
 141              		.loc 1 63 3 view .LVU35
 142 007a 1A6B     		ldr	r2, [r3, #48]
 143 007c 42F00802 		orr	r2, r2, #8
 144 0080 1A63     		str	r2, [r3, #48]
 145              		.loc 1 63 3 view .LVU36
 146 0082 1B6B     		ldr	r3, [r3, #48]
 147 0084 03F00803 		and	r3, r3, #8
 148 0088 0693     		str	r3, [sp, #24]
 149              		.loc 1 63 3 view .LVU37
 150 008a 069B     		ldr	r3, [sp, #24]
 151              	.LBE7:
 152              		.loc 1 63 3 view .LVU38
  64:Core/Src/gpio.c **** 
  65:Core/Src/gpio.c ****   /*Configure GPIO pin Output Level */
  66:Core/Src/gpio.c ****   HAL_GPIO_WritePin(CS_I2C_SPI_GPIO_Port, CS_I2C_SPI_Pin, GPIO_PIN_RESET);
 153              		.loc 1 66 3 view .LVU39
 154 008c DFF84491 		ldr	r9, .L3+12
 155 0090 2246     		mov	r2, r4
 156 0092 0821     		movs	r1, #8
 157 0094 4846     		mov	r0, r9
 158 0096 FFF7FEFF 		bl	HAL_GPIO_WritePin
 159              	.LVL0:
  67:Core/Src/gpio.c **** 
  68:Core/Src/gpio.c ****   /*Configure GPIO pin Output Level */
  69:Core/Src/gpio.c ****   HAL_GPIO_WritePin(OTG_FS_PowerSwitchOn_GPIO_Port, OTG_FS_PowerSwitchOn_Pin, GPIO_PIN_SET);
 160              		.loc 1 69 3 view .LVU40
ARM GAS  /tmp/ccf5v8Q9.s 			page 5


 161 009a DFF83C81 		ldr	r8, .L3+16
 162 009e 0122     		movs	r2, #1
 163 00a0 1146     		mov	r1, r2
 164 00a2 4046     		mov	r0, r8
 165 00a4 FFF7FEFF 		bl	HAL_GPIO_WritePin
 166              	.LVL1:
  70:Core/Src/gpio.c **** 
  71:Core/Src/gpio.c ****   /*Configure GPIO pin Output Level */
  72:Core/Src/gpio.c ****   HAL_GPIO_WritePin(GPIOD, LD4_Pin|LD3_Pin|LD5_Pin|LD6_Pin
 167              		.loc 1 72 3 view .LVU41
 168 00a8 DFF830A1 		ldr	r10, .L3+20
 169 00ac 2246     		mov	r2, r4
 170 00ae 4FF21001 		movw	r1, #61456
 171 00b2 5046     		mov	r0, r10
 172 00b4 FFF7FEFF 		bl	HAL_GPIO_WritePin
 173              	.LVL2:
  73:Core/Src/gpio.c ****                           |Audio_RST_Pin, GPIO_PIN_RESET);
  74:Core/Src/gpio.c **** 
  75:Core/Src/gpio.c ****   /*Configure GPIO pin : PtPin */
  76:Core/Src/gpio.c ****   GPIO_InitStruct.Pin = CS_I2C_SPI_Pin;
 174              		.loc 1 76 3 view .LVU42
 175              		.loc 1 76 23 is_stmt 0 view .LVU43
 176 00b8 0825     		movs	r5, #8
 177 00ba 0795     		str	r5, [sp, #28]
  77:Core/Src/gpio.c ****   GPIO_InitStruct.Mode = GPIO_MODE_OUTPUT_PP;
 178              		.loc 1 77 3 is_stmt 1 view .LVU44
 179              		.loc 1 77 24 is_stmt 0 view .LVU45
 180 00bc 0126     		movs	r6, #1
 181 00be 0896     		str	r6, [sp, #32]
  78:Core/Src/gpio.c ****   GPIO_InitStruct.Pull = GPIO_NOPULL;
 182              		.loc 1 78 3 is_stmt 1 view .LVU46
 183              		.loc 1 78 24 is_stmt 0 view .LVU47
 184 00c0 0994     		str	r4, [sp, #36]
  79:Core/Src/gpio.c ****   GPIO_InitStruct.Speed = GPIO_SPEED_FREQ_LOW;
 185              		.loc 1 79 3 is_stmt 1 view .LVU48
 186              		.loc 1 79 25 is_stmt 0 view .LVU49
 187 00c2 0A94     		str	r4, [sp, #40]
  80:Core/Src/gpio.c ****   HAL_GPIO_Init(CS_I2C_SPI_GPIO_Port, &GPIO_InitStruct);
 188              		.loc 1 80 3 is_stmt 1 view .LVU50
 189 00c4 07A9     		add	r1, sp, #28
 190 00c6 4846     		mov	r0, r9
 191 00c8 FFF7FEFF 		bl	HAL_GPIO_Init
 192              	.LVL3:
  81:Core/Src/gpio.c **** 
  82:Core/Src/gpio.c ****   /*Configure GPIO pin : PtPin */
  83:Core/Src/gpio.c ****   GPIO_InitStruct.Pin = OTG_FS_PowerSwitchOn_Pin;
 193              		.loc 1 83 3 view .LVU51
 194              		.loc 1 83 23 is_stmt 0 view .LVU52
 195 00cc 0796     		str	r6, [sp, #28]
  84:Core/Src/gpio.c ****   GPIO_InitStruct.Mode = GPIO_MODE_OUTPUT_PP;
 196              		.loc 1 84 3 is_stmt 1 view .LVU53
 197              		.loc 1 84 24 is_stmt 0 view .LVU54
 198 00ce 0896     		str	r6, [sp, #32]
  85:Core/Src/gpio.c ****   GPIO_InitStruct.Pull = GPIO_NOPULL;
 199              		.loc 1 85 3 is_stmt 1 view .LVU55
 200              		.loc 1 85 24 is_stmt 0 view .LVU56
 201 00d0 0994     		str	r4, [sp, #36]
ARM GAS  /tmp/ccf5v8Q9.s 			page 6


  86:Core/Src/gpio.c ****   GPIO_InitStruct.Speed = GPIO_SPEED_FREQ_LOW;
 202              		.loc 1 86 3 is_stmt 1 view .LVU57
 203              		.loc 1 86 25 is_stmt 0 view .LVU58
 204 00d2 0A94     		str	r4, [sp, #40]
  87:Core/Src/gpio.c ****   HAL_GPIO_Init(OTG_FS_PowerSwitchOn_GPIO_Port, &GPIO_InitStruct);
 205              		.loc 1 87 3 is_stmt 1 view .LVU59
 206 00d4 07A9     		add	r1, sp, #28
 207 00d6 4046     		mov	r0, r8
 208 00d8 FFF7FEFF 		bl	HAL_GPIO_Init
 209              	.LVL4:
  88:Core/Src/gpio.c **** 
  89:Core/Src/gpio.c ****   /*Configure GPIO pin : PtPin */
  90:Core/Src/gpio.c ****   GPIO_InitStruct.Pin = PDM_OUT_Pin;
 210              		.loc 1 90 3 view .LVU60
 211              		.loc 1 90 23 is_stmt 0 view .LVU61
 212 00dc 0795     		str	r5, [sp, #28]
  91:Core/Src/gpio.c ****   GPIO_InitStruct.Mode = GPIO_MODE_AF_PP;
 213              		.loc 1 91 3 is_stmt 1 view .LVU62
 214              		.loc 1 91 24 is_stmt 0 view .LVU63
 215 00de 0225     		movs	r5, #2
 216 00e0 0895     		str	r5, [sp, #32]
  92:Core/Src/gpio.c ****   GPIO_InitStruct.Pull = GPIO_NOPULL;
 217              		.loc 1 92 3 is_stmt 1 view .LVU64
 218              		.loc 1 92 24 is_stmt 0 view .LVU65
 219 00e2 0994     		str	r4, [sp, #36]
  93:Core/Src/gpio.c ****   GPIO_InitStruct.Speed = GPIO_SPEED_FREQ_LOW;
 220              		.loc 1 93 3 is_stmt 1 view .LVU66
 221              		.loc 1 93 25 is_stmt 0 view .LVU67
 222 00e4 0A94     		str	r4, [sp, #40]
  94:Core/Src/gpio.c ****   GPIO_InitStruct.Alternate = GPIO_AF5_SPI2;
 223              		.loc 1 94 3 is_stmt 1 view .LVU68
 224              		.loc 1 94 29 is_stmt 0 view .LVU69
 225 00e6 4FF0050B 		mov	fp, #5
 226 00ea CDF82CB0 		str	fp, [sp, #44]
  95:Core/Src/gpio.c ****   HAL_GPIO_Init(PDM_OUT_GPIO_Port, &GPIO_InitStruct);
 227              		.loc 1 95 3 is_stmt 1 view .LVU70
 228 00ee 07A9     		add	r1, sp, #28
 229 00f0 4046     		mov	r0, r8
 230 00f2 FFF7FEFF 		bl	HAL_GPIO_Init
 231              	.LVL5:
  96:Core/Src/gpio.c **** 
  97:Core/Src/gpio.c ****   /*Configure GPIO pin : PtPin */
  98:Core/Src/gpio.c ****   GPIO_InitStruct.Pin = B1_Pin;
 232              		.loc 1 98 3 view .LVU71
 233              		.loc 1 98 23 is_stmt 0 view .LVU72
 234 00f6 0796     		str	r6, [sp, #28]
  99:Core/Src/gpio.c ****   GPIO_InitStruct.Mode = GPIO_MODE_EVT_RISING;
 235              		.loc 1 99 3 is_stmt 1 view .LVU73
 236              		.loc 1 99 24 is_stmt 0 view .LVU74
 237 00f8 4FF49013 		mov	r3, #1179648
 238 00fc 0893     		str	r3, [sp, #32]
 100:Core/Src/gpio.c ****   GPIO_InitStruct.Pull = GPIO_NOPULL;
 239              		.loc 1 100 3 is_stmt 1 view .LVU75
 240              		.loc 1 100 24 is_stmt 0 view .LVU76
 241 00fe 0994     		str	r4, [sp, #36]
 101:Core/Src/gpio.c ****   HAL_GPIO_Init(B1_GPIO_Port, &GPIO_InitStruct);
 242              		.loc 1 101 3 is_stmt 1 view .LVU77
ARM GAS  /tmp/ccf5v8Q9.s 			page 7


 243 0100 324F     		ldr	r7, .L3+4
 244 0102 07A9     		add	r1, sp, #28
 245 0104 3846     		mov	r0, r7
 246 0106 FFF7FEFF 		bl	HAL_GPIO_Init
 247              	.LVL6:
 102:Core/Src/gpio.c **** 
 103:Core/Src/gpio.c ****   /*Configure GPIO pin : PtPin */
 104:Core/Src/gpio.c ****   GPIO_InitStruct.Pin = I2S3_WS_Pin;
 248              		.loc 1 104 3 view .LVU78
 249              		.loc 1 104 23 is_stmt 0 view .LVU79
 250 010a 1023     		movs	r3, #16
 251 010c 0793     		str	r3, [sp, #28]
 105:Core/Src/gpio.c ****   GPIO_InitStruct.Mode = GPIO_MODE_AF_PP;
 252              		.loc 1 105 3 is_stmt 1 view .LVU80
 253              		.loc 1 105 24 is_stmt 0 view .LVU81
 254 010e 0895     		str	r5, [sp, #32]
 106:Core/Src/gpio.c ****   GPIO_InitStruct.Pull = GPIO_NOPULL;
 255              		.loc 1 106 3 is_stmt 1 view .LVU82
 256              		.loc 1 106 24 is_stmt 0 view .LVU83
 257 0110 0994     		str	r4, [sp, #36]
 107:Core/Src/gpio.c ****   GPIO_InitStruct.Speed = GPIO_SPEED_FREQ_LOW;
 258              		.loc 1 107 3 is_stmt 1 view .LVU84
 259              		.loc 1 107 25 is_stmt 0 view .LVU85
 260 0112 0A94     		str	r4, [sp, #40]
 108:Core/Src/gpio.c ****   GPIO_InitStruct.Alternate = GPIO_AF6_SPI3;
 261              		.loc 1 108 3 is_stmt 1 view .LVU86
 262              		.loc 1 108 29 is_stmt 0 view .LVU87
 263 0114 0623     		movs	r3, #6
 264 0116 0B93     		str	r3, [sp, #44]
 109:Core/Src/gpio.c ****   HAL_GPIO_Init(I2S3_WS_GPIO_Port, &GPIO_InitStruct);
 265              		.loc 1 109 3 is_stmt 1 view .LVU88
 266 0118 07A9     		add	r1, sp, #28
 267 011a 3846     		mov	r0, r7
 268 011c FFF7FEFF 		bl	HAL_GPIO_Init
 269              	.LVL7:
 110:Core/Src/gpio.c **** 
 111:Core/Src/gpio.c ****   /*Configure GPIO pin : PtPin */
 112:Core/Src/gpio.c ****   GPIO_InitStruct.Pin = BOOT1_Pin;
 270              		.loc 1 112 3 view .LVU89
 271              		.loc 1 112 23 is_stmt 0 view .LVU90
 272 0120 0423     		movs	r3, #4
 273 0122 0793     		str	r3, [sp, #28]
 113:Core/Src/gpio.c ****   GPIO_InitStruct.Mode = GPIO_MODE_INPUT;
 274              		.loc 1 113 3 is_stmt 1 view .LVU91
 275              		.loc 1 113 24 is_stmt 0 view .LVU92
 276 0124 0894     		str	r4, [sp, #32]
 114:Core/Src/gpio.c ****   GPIO_InitStruct.Pull = GPIO_NOPULL;
 277              		.loc 1 114 3 is_stmt 1 view .LVU93
 278              		.loc 1 114 24 is_stmt 0 view .LVU94
 279 0126 0994     		str	r4, [sp, #36]
 115:Core/Src/gpio.c ****   HAL_GPIO_Init(BOOT1_GPIO_Port, &GPIO_InitStruct);
 280              		.loc 1 115 3 is_stmt 1 view .LVU95
 281 0128 07A9     		add	r1, sp, #28
 282 012a 2948     		ldr	r0, .L3+8
 283 012c FFF7FEFF 		bl	HAL_GPIO_Init
 284              	.LVL8:
 116:Core/Src/gpio.c **** 
ARM GAS  /tmp/ccf5v8Q9.s 			page 8


 117:Core/Src/gpio.c ****   /*Configure GPIO pin : PtPin */
 118:Core/Src/gpio.c ****   GPIO_InitStruct.Pin = CLK_IN_Pin;
 285              		.loc 1 118 3 view .LVU96
 286              		.loc 1 118 23 is_stmt 0 view .LVU97
 287 0130 4FF48063 		mov	r3, #1024
 288 0134 0793     		str	r3, [sp, #28]
 119:Core/Src/gpio.c ****   GPIO_InitStruct.Mode = GPIO_MODE_AF_PP;
 289              		.loc 1 119 3 is_stmt 1 view .LVU98
 290              		.loc 1 119 24 is_stmt 0 view .LVU99
 291 0136 0895     		str	r5, [sp, #32]
 120:Core/Src/gpio.c ****   GPIO_InitStruct.Pull = GPIO_NOPULL;
 292              		.loc 1 120 3 is_stmt 1 view .LVU100
 293              		.loc 1 120 24 is_stmt 0 view .LVU101
 294 0138 0994     		str	r4, [sp, #36]
 121:Core/Src/gpio.c ****   GPIO_InitStruct.Speed = GPIO_SPEED_FREQ_LOW;
 295              		.loc 1 121 3 is_stmt 1 view .LVU102
 296              		.loc 1 121 25 is_stmt 0 view .LVU103
 297 013a 0A94     		str	r4, [sp, #40]
 122:Core/Src/gpio.c ****   GPIO_InitStruct.Alternate = GPIO_AF5_SPI2;
 298              		.loc 1 122 3 is_stmt 1 view .LVU104
 299              		.loc 1 122 29 is_stmt 0 view .LVU105
 300 013c CDF82CB0 		str	fp, [sp, #44]
 123:Core/Src/gpio.c ****   HAL_GPIO_Init(CLK_IN_GPIO_Port, &GPIO_InitStruct);
 301              		.loc 1 123 3 is_stmt 1 view .LVU106
 302 0140 07A9     		add	r1, sp, #28
 303 0142 2348     		ldr	r0, .L3+8
 304 0144 FFF7FEFF 		bl	HAL_GPIO_Init
 305              	.LVL9:
 124:Core/Src/gpio.c **** 
 125:Core/Src/gpio.c ****   /*Configure GPIO pins : PDPin PDPin PDPin PDPin
 126:Core/Src/gpio.c ****                            PDPin */
 127:Core/Src/gpio.c ****   GPIO_InitStruct.Pin = LD4_Pin|LD3_Pin|LD5_Pin|LD6_Pin
 306              		.loc 1 127 3 view .LVU107
 307              		.loc 1 127 23 is_stmt 0 view .LVU108
 308 0148 4FF21003 		movw	r3, #61456
 309 014c 0793     		str	r3, [sp, #28]
 128:Core/Src/gpio.c ****                           |Audio_RST_Pin;
 129:Core/Src/gpio.c ****   GPIO_InitStruct.Mode = GPIO_MODE_OUTPUT_PP;
 310              		.loc 1 129 3 is_stmt 1 view .LVU109
 311              		.loc 1 129 24 is_stmt 0 view .LVU110
 312 014e 0896     		str	r6, [sp, #32]
 130:Core/Src/gpio.c ****   GPIO_InitStruct.Pull = GPIO_NOPULL;
 313              		.loc 1 130 3 is_stmt 1 view .LVU111
 314              		.loc 1 130 24 is_stmt 0 view .LVU112
 315 0150 0994     		str	r4, [sp, #36]
 131:Core/Src/gpio.c ****   GPIO_InitStruct.Speed = GPIO_SPEED_FREQ_LOW;
 316              		.loc 1 131 3 is_stmt 1 view .LVU113
 317              		.loc 1 131 25 is_stmt 0 view .LVU114
 318 0152 0A94     		str	r4, [sp, #40]
 132:Core/Src/gpio.c ****   HAL_GPIO_Init(GPIOD, &GPIO_InitStruct);
 319              		.loc 1 132 3 is_stmt 1 view .LVU115
 320 0154 07A9     		add	r1, sp, #28
 321 0156 5046     		mov	r0, r10
 322 0158 FFF7FEFF 		bl	HAL_GPIO_Init
 323              	.LVL10:
 133:Core/Src/gpio.c **** 
 134:Core/Src/gpio.c ****   /*Configure GPIO pins : PCPin PCPin PCPin */
ARM GAS  /tmp/ccf5v8Q9.s 			page 9


 135:Core/Src/gpio.c ****   GPIO_InitStruct.Pin = I2S3_MCK_Pin|I2S3_SCK_Pin|I2S3_SD_Pin;
 324              		.loc 1 135 3 view .LVU116
 325              		.loc 1 135 23 is_stmt 0 view .LVU117
 326 015c 4FF4A453 		mov	r3, #5248
 327 0160 0793     		str	r3, [sp, #28]
 136:Core/Src/gpio.c ****   GPIO_InitStruct.Mode = GPIO_MODE_AF_PP;
 328              		.loc 1 136 3 is_stmt 1 view .LVU118
 329              		.loc 1 136 24 is_stmt 0 view .LVU119
 330 0162 0895     		str	r5, [sp, #32]
 137:Core/Src/gpio.c ****   GPIO_InitStruct.Pull = GPIO_NOPULL;
 331              		.loc 1 137 3 is_stmt 1 view .LVU120
 332              		.loc 1 137 24 is_stmt 0 view .LVU121
 333 0164 0994     		str	r4, [sp, #36]
 138:Core/Src/gpio.c ****   GPIO_InitStruct.Speed = GPIO_SPEED_FREQ_LOW;
 334              		.loc 1 138 3 is_stmt 1 view .LVU122
 335              		.loc 1 138 25 is_stmt 0 view .LVU123
 336 0166 0A94     		str	r4, [sp, #40]
 139:Core/Src/gpio.c ****   GPIO_InitStruct.Alternate = GPIO_AF6_SPI3;
 337              		.loc 1 139 3 is_stmt 1 view .LVU124
 338              		.loc 1 139 29 is_stmt 0 view .LVU125
 339 0168 0623     		movs	r3, #6
 340 016a 0B93     		str	r3, [sp, #44]
 140:Core/Src/gpio.c ****   HAL_GPIO_Init(GPIOC, &GPIO_InitStruct);
 341              		.loc 1 140 3 is_stmt 1 view .LVU126
 342 016c 07A9     		add	r1, sp, #28
 343 016e 4046     		mov	r0, r8
 344 0170 FFF7FEFF 		bl	HAL_GPIO_Init
 345              	.LVL11:
 141:Core/Src/gpio.c **** 
 142:Core/Src/gpio.c ****   /*Configure GPIO pin : PtPin */
 143:Core/Src/gpio.c ****   GPIO_InitStruct.Pin = VBUS_FS_Pin;
 346              		.loc 1 143 3 view .LVU127
 347              		.loc 1 143 23 is_stmt 0 view .LVU128
 348 0174 4FF40073 		mov	r3, #512
 349 0178 0793     		str	r3, [sp, #28]
 144:Core/Src/gpio.c ****   GPIO_InitStruct.Mode = GPIO_MODE_INPUT;
 350              		.loc 1 144 3 is_stmt 1 view .LVU129
 351              		.loc 1 144 24 is_stmt 0 view .LVU130
 352 017a 0894     		str	r4, [sp, #32]
 145:Core/Src/gpio.c ****   GPIO_InitStruct.Pull = GPIO_NOPULL;
 353              		.loc 1 145 3 is_stmt 1 view .LVU131
 354              		.loc 1 145 24 is_stmt 0 view .LVU132
 355 017c 0994     		str	r4, [sp, #36]
 146:Core/Src/gpio.c ****   HAL_GPIO_Init(VBUS_FS_GPIO_Port, &GPIO_InitStruct);
 356              		.loc 1 146 3 is_stmt 1 view .LVU133
 357 017e 07A9     		add	r1, sp, #28
 358 0180 3846     		mov	r0, r7
 359 0182 FFF7FEFF 		bl	HAL_GPIO_Init
 360              	.LVL12:
 147:Core/Src/gpio.c **** 
 148:Core/Src/gpio.c ****   /*Configure GPIO pins : PAPin PAPin PAPin */
 149:Core/Src/gpio.c ****   GPIO_InitStruct.Pin = OTG_FS_ID_Pin|OTG_FS_DM_Pin|OTG_FS_DP_Pin;
 361              		.loc 1 149 3 view .LVU134
 362              		.loc 1 149 23 is_stmt 0 view .LVU135
 363 0186 4FF4E053 		mov	r3, #7168
 364 018a 0793     		str	r3, [sp, #28]
 150:Core/Src/gpio.c ****   GPIO_InitStruct.Mode = GPIO_MODE_AF_PP;
ARM GAS  /tmp/ccf5v8Q9.s 			page 10


 365              		.loc 1 150 3 is_stmt 1 view .LVU136
 366              		.loc 1 150 24 is_stmt 0 view .LVU137
 367 018c 0895     		str	r5, [sp, #32]
 151:Core/Src/gpio.c ****   GPIO_InitStruct.Pull = GPIO_NOPULL;
 368              		.loc 1 151 3 is_stmt 1 view .LVU138
 369              		.loc 1 151 24 is_stmt 0 view .LVU139
 370 018e 0994     		str	r4, [sp, #36]
 152:Core/Src/gpio.c ****   GPIO_InitStruct.Speed = GPIO_SPEED_FREQ_LOW;
 371              		.loc 1 152 3 is_stmt 1 view .LVU140
 372              		.loc 1 152 25 is_stmt 0 view .LVU141
 373 0190 0A94     		str	r4, [sp, #40]
 153:Core/Src/gpio.c ****   GPIO_InitStruct.Alternate = GPIO_AF10_OTG_FS;
 374              		.loc 1 153 3 is_stmt 1 view .LVU142
 375              		.loc 1 153 29 is_stmt 0 view .LVU143
 376 0192 0A23     		movs	r3, #10
 377 0194 0B93     		str	r3, [sp, #44]
 154:Core/Src/gpio.c ****   HAL_GPIO_Init(GPIOA, &GPIO_InitStruct);
 378              		.loc 1 154 3 is_stmt 1 view .LVU144
 379 0196 07A9     		add	r1, sp, #28
 380 0198 3846     		mov	r0, r7
 381 019a FFF7FEFF 		bl	HAL_GPIO_Init
 382              	.LVL13:
 155:Core/Src/gpio.c **** 
 156:Core/Src/gpio.c ****   /*Configure GPIO pin : PtPin */
 157:Core/Src/gpio.c ****   GPIO_InitStruct.Pin = OTG_FS_OverCurrent_Pin;
 383              		.loc 1 157 3 view .LVU145
 384              		.loc 1 157 23 is_stmt 0 view .LVU146
 385 019e 2023     		movs	r3, #32
 386 01a0 0793     		str	r3, [sp, #28]
 158:Core/Src/gpio.c ****   GPIO_InitStruct.Mode = GPIO_MODE_INPUT;
 387              		.loc 1 158 3 is_stmt 1 view .LVU147
 388              		.loc 1 158 24 is_stmt 0 view .LVU148
 389 01a2 0894     		str	r4, [sp, #32]
 159:Core/Src/gpio.c ****   GPIO_InitStruct.Pull = GPIO_NOPULL;
 390              		.loc 1 159 3 is_stmt 1 view .LVU149
 391              		.loc 1 159 24 is_stmt 0 view .LVU150
 392 01a4 0994     		str	r4, [sp, #36]
 160:Core/Src/gpio.c ****   HAL_GPIO_Init(OTG_FS_OverCurrent_GPIO_Port, &GPIO_InitStruct);
 393              		.loc 1 160 3 is_stmt 1 view .LVU151
 394 01a6 07A9     		add	r1, sp, #28
 395 01a8 5046     		mov	r0, r10
 396 01aa FFF7FEFF 		bl	HAL_GPIO_Init
 397              	.LVL14:
 161:Core/Src/gpio.c **** 
 162:Core/Src/gpio.c ****   /*Configure GPIO pin : PtPin */
 163:Core/Src/gpio.c ****   GPIO_InitStruct.Pin = MEMS_INT2_Pin;
 398              		.loc 1 163 3 view .LVU152
 399              		.loc 1 163 23 is_stmt 0 view .LVU153
 400 01ae 0795     		str	r5, [sp, #28]
 164:Core/Src/gpio.c ****   GPIO_InitStruct.Mode = GPIO_MODE_EVT_RISING;
 401              		.loc 1 164 3 is_stmt 1 view .LVU154
 402              		.loc 1 164 24 is_stmt 0 view .LVU155
 403 01b0 4FF49013 		mov	r3, #1179648
 404 01b4 0893     		str	r3, [sp, #32]
 165:Core/Src/gpio.c ****   GPIO_InitStruct.Pull = GPIO_NOPULL;
 405              		.loc 1 165 3 is_stmt 1 view .LVU156
 406              		.loc 1 165 24 is_stmt 0 view .LVU157
ARM GAS  /tmp/ccf5v8Q9.s 			page 11


 407 01b6 0994     		str	r4, [sp, #36]
 166:Core/Src/gpio.c ****   HAL_GPIO_Init(MEMS_INT2_GPIO_Port, &GPIO_InitStruct);
 408              		.loc 1 166 3 is_stmt 1 view .LVU158
 409 01b8 07A9     		add	r1, sp, #28
 410 01ba 4846     		mov	r0, r9
 411 01bc FFF7FEFF 		bl	HAL_GPIO_Init
 412              	.LVL15:
 167:Core/Src/gpio.c **** 
 168:Core/Src/gpio.c **** }
 413              		.loc 1 168 1 is_stmt 0 view .LVU159
 414 01c0 0DB0     		add	sp, sp, #52
 415              	.LCFI2:
 416              		.cfi_def_cfa_offset 36
 417              		@ sp needed
 418 01c2 BDE8F08F 		pop	{r4, r5, r6, r7, r8, r9, r10, fp, pc}
 419              	.L4:
 420 01c6 00BF     		.align	2
 421              	.L3:
 422 01c8 00380240 		.word	1073887232
 423 01cc 00000240 		.word	1073872896
 424 01d0 00040240 		.word	1073873920
 425 01d4 00100240 		.word	1073876992
 426 01d8 00080240 		.word	1073874944
 427 01dc 000C0240 		.word	1073875968
 428              		.cfi_endproc
 429              	.LFE130:
 431              		.text
 432              	.Letext0:
 433              		.file 2 "/usr/share/gcc-arm-none-eabi-10.3-2021.10/arm-none-eabi/include/machine/_default_types.h"
 434              		.file 3 "/usr/share/gcc-arm-none-eabi-10.3-2021.10/arm-none-eabi/include/sys/_stdint.h"
 435              		.file 4 "Drivers/CMSIS/Device/ST/STM32F4xx/Include/stm32f407xx.h"
 436              		.file 5 "Drivers/STM32F4xx_HAL_Driver/Inc/stm32f4xx_hal_gpio.h"
ARM GAS  /tmp/ccf5v8Q9.s 			page 12

