ARM GAS  /tmp/ccFksUoD.s 			page 1


   1              		.cpu cortex-m4
   2              		.arch armv7e-m
   3              		.fpu fpv4-sp-d16
   4              		.eabi_attribute 27, 1
   5              		.eabi_attribute 28, 1
   6              		.eabi_attribute 20, 1
   7              		.eabi_attribute 21, 1
   8              		.eabi_attribute 23, 3
   9              		.eabi_attribute 24, 1
  10              		.eabi_attribute 25, 1
  11              		.eabi_attribute 26, 1
  12              		.eabi_attribute 30, 1
  13              		.eabi_attribute 34, 1
  14              		.eabi_attribute 18, 4
  15              		.file	"hyperdog_uros_node.c"
  16              		.text
  17              	.Ltext0:
  18              		.cfi_sections	.debug_frame
  19              		.section	.rodata._init_motors_state_publisher.str1.4,"aMS",%progbits,1
  20              		.align	2
  21              	.LC0:
  22 0000 6D6F746F 		.ascii	"motors_states\000"
  22      72735F73 
  22      74617465 
  22      7300
  23              		.section	.text._init_motors_state_publisher,"ax",%progbits
  24              		.align	1
  25              		.global	_init_motors_state_publisher
  26              		.syntax unified
  27              		.thumb
  28              		.thumb_func
  30              	_init_motors_state_publisher:
  31              	.LFB135:
  32              		.file 1 "App/Src/hyperdog_uros_node.c"
   1:App/Src/hyperdog_uros_node.c **** 
   2:App/Src/hyperdog_uros_node.c **** #include "main.h"
   3:App/Src/hyperdog_uros_node.c **** #include "hyperdog_uros_node.h"
   4:App/Src/hyperdog_uros_node.c **** #include "motor_typedefs.h"
   5:App/Src/hyperdog_uros_node.c **** 
   6:App/Src/hyperdog_uros_node.c **** hyperdogUROS_Node_t hyperdog_node;
   7:App/Src/hyperdog_uros_node.c **** hyperdog_uros_msgs__msg__MotorStates motor_states_;
   8:App/Src/hyperdog_uros_node.c **** 
   9:App/Src/hyperdog_uros_node.c **** void init_hyperdog_node()
  10:App/Src/hyperdog_uros_node.c **** {
  11:App/Src/hyperdog_uros_node.c ****     hyperdog_node.state = HYPERDOG_NODE_INITIALIZING;
  12:App/Src/hyperdog_uros_node.c **** 
  13:App/Src/hyperdog_uros_node.c ****     /* initialize the node */
  14:App/Src/hyperdog_uros_node.c ****     hyperdog_node.rcl_ret = rclc_node_init_default(
  15:App/Src/hyperdog_uros_node.c ****                             &hyperdog_node.node, 
  16:App/Src/hyperdog_uros_node.c ****                             "hyperdog_uros_node", 
  17:App/Src/hyperdog_uros_node.c ****                             "", 
  18:App/Src/hyperdog_uros_node.c ****                             &uros.support);
  19:App/Src/hyperdog_uros_node.c **** 
  20:App/Src/hyperdog_uros_node.c ****     /* check error */
  21:App/Src/hyperdog_uros_node.c ****     if(hyperdog_node.rcl_ret != RCL_RET_OK){
  22:App/Src/hyperdog_uros_node.c ****         hyperdog_node.state = HYPERDOG_NODE_ERROR;
  23:App/Src/hyperdog_uros_node.c ****         hyperdog_node.error_code |= NODE_HYPERDOG_ERROR_FAILED_INIT;
ARM GAS  /tmp/ccFksUoD.s 			page 2


  24:App/Src/hyperdog_uros_node.c **** 
  25:App/Src/hyperdog_uros_node.c ****         /* check if rcl_support has no error */
  26:App/Src/hyperdog_uros_node.c ****         /// TODO: check rcl_support error, if error exist resetMicroROS()
  27:App/Src/hyperdog_uros_node.c **** 
  28:App/Src/hyperdog_uros_node.c ****         // resetMicroROS(); 
  29:App/Src/hyperdog_uros_node.c ****     }
  30:App/Src/hyperdog_uros_node.c ****     /* if no error */
  31:App/Src/hyperdog_uros_node.c ****     hyperdog_node.error_code &= ~NODE_HYPERDOG_ERROR_FAILED_INIT;
  32:App/Src/hyperdog_uros_node.c **** 
  33:App/Src/hyperdog_uros_node.c ****     /* init publishers */
  34:App/Src/hyperdog_uros_node.c ****     _init_motors_state_publisher();
  35:App/Src/hyperdog_uros_node.c **** 
  36:App/Src/hyperdog_uros_node.c **** 
  37:App/Src/hyperdog_uros_node.c ****     /* init subscribers */
  38:App/Src/hyperdog_uros_node.c **** 
  39:App/Src/hyperdog_uros_node.c **** 
  40:App/Src/hyperdog_uros_node.c ****     /* init services */
  41:App/Src/hyperdog_uros_node.c **** 
  42:App/Src/hyperdog_uros_node.c **** 
  43:App/Src/hyperdog_uros_node.c ****     /* init timers */
  44:App/Src/hyperdog_uros_node.c **** 
  45:App/Src/hyperdog_uros_node.c **** }
  46:App/Src/hyperdog_uros_node.c **** 
  47:App/Src/hyperdog_uros_node.c **** void _init_motors_state_publisher()
  48:App/Src/hyperdog_uros_node.c **** {
  33              		.loc 1 48 1 view -0
  34              		.cfi_startproc
  35              		@ args = 0, pretend = 0, frame = 0
  36              		@ frame_needed = 0, uses_anonymous_args = 0
  37 0000 10B5     		push	{r4, lr}
  38              	.LCFI0:
  39              		.cfi_def_cfa_offset 8
  40              		.cfi_offset 4, -8
  41              		.cfi_offset 14, -4
  49:App/Src/hyperdog_uros_node.c ****     hyperdog_node.rcl_ret = rclc_publisher_init_default(
  42              		.loc 1 49 5 view .LVU1
  43              		.loc 1 49 29 is_stmt 0 view .LVU2
  44 0002 FFF7FEFF 		bl	rosidl_typesupport_c__get_message_type_support_handle__hyperdog_uros_msgs__msg__MotorsStates
  45              	.LVL0:
  46 0006 0246     		mov	r2, r0
  47 0008 154C     		ldr	r4, .L5
  48 000a 164B     		ldr	r3, .L5+4
  49 000c 2146     		mov	r1, r4
  50 000e 04F10800 		add	r0, r4, #8
  51 0012 FFF7FEFF 		bl	rclc_publisher_init_default
  52              	.LVL1:
  53              		.loc 1 49 27 view .LVU3
  54 0016 C4F83404 		str	r0, [r4, #1076]
  50:App/Src/hyperdog_uros_node.c ****                             &hyperdog_node.motors_states_pub,
  51:App/Src/hyperdog_uros_node.c ****                             &hyperdog_node.node,
  52:App/Src/hyperdog_uros_node.c ****                             ROSIDL_GET_MSG_TYPE_SUPPORT(hyperdog_uros_msgs, msg, MotorsStates),
  53:App/Src/hyperdog_uros_node.c ****                             "motors_states"
  54:App/Src/hyperdog_uros_node.c ****                             );
  55:App/Src/hyperdog_uros_node.c ****     if(hyperdog_node.rcl_ret != RCL_RET_OK){
  55              		.loc 1 55 5 is_stmt 1 view .LVU4
  56              		.loc 1 55 7 is_stmt 0 view .LVU5
  57 001a 48B1     		cbz	r0, .L2
ARM GAS  /tmp/ccFksUoD.s 			page 3


  56:App/Src/hyperdog_uros_node.c ****         hyperdog_node.state = HYPERDOG_NODE_ERROR;
  58              		.loc 1 56 9 is_stmt 1 view .LVU6
  59              		.loc 1 56 29 is_stmt 0 view .LVU7
  60 001c 0322     		movs	r2, #3
  61 001e 84F83024 		strb	r2, [r4, #1072]
  57:App/Src/hyperdog_uros_node.c ****         hyperdog_node.error_code |= NODE_HYPERDOG_ERROR_FAILED_PUB1;
  62              		.loc 1 57 9 is_stmt 1 view .LVU8
  63              		.loc 1 57 34 is_stmt 0 view .LVU9
  64 0022 B4F83224 		ldrh	r2, [r4, #1074]
  65 0026 42F00202 		orr	r2, r2, #2
  66 002a A4F83224 		strh	r2, [r4, #1074]	@ movhi
  67              	.L1:
  58:App/Src/hyperdog_uros_node.c ****     }
  59:App/Src/hyperdog_uros_node.c ****     else{
  60:App/Src/hyperdog_uros_node.c ****         hyperdog_node.error_code &= ~NODE_HYPERDOG_ERROR_FAILED_PUB1;
  61:App/Src/hyperdog_uros_node.c **** 
  62:App/Src/hyperdog_uros_node.c ****         motor_states_.leg.capacity = 2;
  63:App/Src/hyperdog_uros_node.c ****         motor_states_.leg.data = (char*) malloc(motor_states_.leg.capacity * sizeof(char));
  64:App/Src/hyperdog_uros_node.c **** 
  65:App/Src/hyperdog_uros_node.c ****         motor_states_.joint.capacity = 5;
  66:App/Src/hyperdog_uros_node.c ****         motor_states_.joint.data = (char*) malloc(motor_states_.joint.capacity * sizeof(char));
  67:App/Src/hyperdog_uros_node.c **** 
  68:App/Src/hyperdog_uros_node.c ****         motor_states_.status_msg.capacity = 20;
  69:App/Src/hyperdog_uros_node.c ****         motor_states_.status_msg.data = (char*) malloc(motor_states_.status_msg.capacity * sizeof(c
  70:App/Src/hyperdog_uros_node.c ****     }
  71:App/Src/hyperdog_uros_node.c **** }
  68              		.loc 1 71 1 view .LVU10
  69 002e 10BD     		pop	{r4, pc}
  70              	.L2:
  60:App/Src/hyperdog_uros_node.c **** 
  71              		.loc 1 60 9 is_stmt 1 view .LVU11
  60:App/Src/hyperdog_uros_node.c **** 
  72              		.loc 1 60 34 is_stmt 0 view .LVU12
  73 0030 0B4A     		ldr	r2, .L5
  74 0032 B2F83234 		ldrh	r3, [r2, #1074]
  75 0036 23F00203 		bic	r3, r3, #2
  76 003a A2F83234 		strh	r3, [r2, #1074]	@ movhi
  62:App/Src/hyperdog_uros_node.c ****         motor_states_.leg.data = (char*) malloc(motor_states_.leg.capacity * sizeof(char));
  77              		.loc 1 62 9 is_stmt 1 view .LVU13
  62:App/Src/hyperdog_uros_node.c ****         motor_states_.leg.data = (char*) malloc(motor_states_.leg.capacity * sizeof(char));
  78              		.loc 1 62 36 is_stmt 0 view .LVU14
  79 003e 0A4C     		ldr	r4, .L5+8
  80 0040 0220     		movs	r0, #2
  81 0042 A060     		str	r0, [r4, #8]
  63:App/Src/hyperdog_uros_node.c **** 
  82              		.loc 1 63 9 is_stmt 1 view .LVU15
  63:App/Src/hyperdog_uros_node.c **** 
  83              		.loc 1 63 42 is_stmt 0 view .LVU16
  84 0044 FFF7FEFF 		bl	malloc
  85              	.LVL2:
  63:App/Src/hyperdog_uros_node.c **** 
  86              		.loc 1 63 32 view .LVU17
  87 0048 2060     		str	r0, [r4]
  65:App/Src/hyperdog_uros_node.c ****         motor_states_.joint.data = (char*) malloc(motor_states_.joint.capacity * sizeof(char));
  88              		.loc 1 65 9 is_stmt 1 view .LVU18
  65:App/Src/hyperdog_uros_node.c ****         motor_states_.joint.data = (char*) malloc(motor_states_.joint.capacity * sizeof(char));
  89              		.loc 1 65 38 is_stmt 0 view .LVU19
ARM GAS  /tmp/ccFksUoD.s 			page 4


  90 004a 0520     		movs	r0, #5
  91 004c 6061     		str	r0, [r4, #20]
  66:App/Src/hyperdog_uros_node.c **** 
  92              		.loc 1 66 9 is_stmt 1 view .LVU20
  66:App/Src/hyperdog_uros_node.c **** 
  93              		.loc 1 66 44 is_stmt 0 view .LVU21
  94 004e FFF7FEFF 		bl	malloc
  95              	.LVL3:
  66:App/Src/hyperdog_uros_node.c **** 
  96              		.loc 1 66 34 view .LVU22
  97 0052 E060     		str	r0, [r4, #12]
  68:App/Src/hyperdog_uros_node.c ****         motor_states_.status_msg.data = (char*) malloc(motor_states_.status_msg.capacity * sizeof(c
  98              		.loc 1 68 9 is_stmt 1 view .LVU23
  68:App/Src/hyperdog_uros_node.c ****         motor_states_.status_msg.data = (char*) malloc(motor_states_.status_msg.capacity * sizeof(c
  99              		.loc 1 68 43 is_stmt 0 view .LVU24
 100 0054 1420     		movs	r0, #20
 101 0056 A062     		str	r0, [r4, #40]
  69:App/Src/hyperdog_uros_node.c ****     }
 102              		.loc 1 69 9 is_stmt 1 view .LVU25
  69:App/Src/hyperdog_uros_node.c ****     }
 103              		.loc 1 69 49 is_stmt 0 view .LVU26
 104 0058 FFF7FEFF 		bl	malloc
 105              	.LVL4:
  69:App/Src/hyperdog_uros_node.c ****     }
 106              		.loc 1 69 39 view .LVU27
 107 005c 2062     		str	r0, [r4, #32]
 108              		.loc 1 71 1 view .LVU28
 109 005e E6E7     		b	.L1
 110              	.L6:
 111              		.align	2
 112              	.L5:
 113 0060 00000000 		.word	.LANCHOR0
 114 0064 00000000 		.word	.LC0
 115 0068 00000000 		.word	.LANCHOR1
 116              		.cfi_endproc
 117              	.LFE135:
 119              		.section	.rodata.init_hyperdog_node.str1.4,"aMS",%progbits,1
 120              		.align	2
 121              	.LC1:
 122 0000 00       		.ascii	"\000"
 123 0001 000000   		.align	2
 124              	.LC2:
 125 0004 68797065 		.ascii	"hyperdog_uros_node\000"
 125      72646F67 
 125      5F75726F 
 125      735F6E6F 
 125      646500
 126              		.section	.text.init_hyperdog_node,"ax",%progbits
 127              		.align	1
 128              		.global	init_hyperdog_node
 129              		.syntax unified
 130              		.thumb
 131              		.thumb_func
 133              	init_hyperdog_node:
 134              	.LFB134:
  10:App/Src/hyperdog_uros_node.c ****     hyperdog_node.state = HYPERDOG_NODE_INITIALIZING;
 135              		.loc 1 10 1 is_stmt 1 view -0
ARM GAS  /tmp/ccFksUoD.s 			page 5


 136              		.cfi_startproc
 137              		@ args = 0, pretend = 0, frame = 0
 138              		@ frame_needed = 0, uses_anonymous_args = 0
 139 0000 10B5     		push	{r4, lr}
 140              	.LCFI1:
 141              		.cfi_def_cfa_offset 8
 142              		.cfi_offset 4, -8
 143              		.cfi_offset 14, -4
  11:App/Src/hyperdog_uros_node.c **** 
 144              		.loc 1 11 5 view .LVU30
  11:App/Src/hyperdog_uros_node.c **** 
 145              		.loc 1 11 25 is_stmt 0 view .LVU31
 146 0002 104C     		ldr	r4, .L10
 147 0004 0123     		movs	r3, #1
 148 0006 84F83034 		strb	r3, [r4, #1072]
  14:App/Src/hyperdog_uros_node.c ****                             &hyperdog_node.node, 
 149              		.loc 1 14 5 is_stmt 1 view .LVU32
  14:App/Src/hyperdog_uros_node.c ****                             &hyperdog_node.node, 
 150              		.loc 1 14 29 is_stmt 0 view .LVU33
 151 000a 0F4B     		ldr	r3, .L10+4
 152 000c 0F4A     		ldr	r2, .L10+8
 153 000e 1049     		ldr	r1, .L10+12
 154 0010 2046     		mov	r0, r4
 155 0012 FFF7FEFF 		bl	rclc_node_init_default
 156              	.LVL5:
  14:App/Src/hyperdog_uros_node.c ****                             &hyperdog_node.node, 
 157              		.loc 1 14 27 view .LVU34
 158 0016 C4F83404 		str	r0, [r4, #1076]
  21:App/Src/hyperdog_uros_node.c ****         hyperdog_node.state = HYPERDOG_NODE_ERROR;
 159              		.loc 1 21 5 is_stmt 1 view .LVU35
  21:App/Src/hyperdog_uros_node.c ****         hyperdog_node.state = HYPERDOG_NODE_ERROR;
 160              		.loc 1 21 7 is_stmt 0 view .LVU36
 161 001a 40B1     		cbz	r0, .L8
  22:App/Src/hyperdog_uros_node.c ****         hyperdog_node.error_code |= NODE_HYPERDOG_ERROR_FAILED_INIT;
 162              		.loc 1 22 9 is_stmt 1 view .LVU37
  22:App/Src/hyperdog_uros_node.c ****         hyperdog_node.error_code |= NODE_HYPERDOG_ERROR_FAILED_INIT;
 163              		.loc 1 22 29 is_stmt 0 view .LVU38
 164 001c 0322     		movs	r2, #3
 165 001e 84F83024 		strb	r2, [r4, #1072]
  23:App/Src/hyperdog_uros_node.c **** 
 166              		.loc 1 23 9 is_stmt 1 view .LVU39
  23:App/Src/hyperdog_uros_node.c **** 
 167              		.loc 1 23 34 is_stmt 0 view .LVU40
 168 0022 B4F83224 		ldrh	r2, [r4, #1074]
 169 0026 42F00102 		orr	r2, r2, #1
 170 002a A4F83224 		strh	r2, [r4, #1074]	@ movhi
 171              	.L8:
  31:App/Src/hyperdog_uros_node.c **** 
 172              		.loc 1 31 5 is_stmt 1 view .LVU41
  31:App/Src/hyperdog_uros_node.c **** 
 173              		.loc 1 31 30 is_stmt 0 view .LVU42
 174 002e 054A     		ldr	r2, .L10
 175 0030 B2F83234 		ldrh	r3, [r2, #1074]
 176 0034 23F00103 		bic	r3, r3, #1
 177 0038 A2F83234 		strh	r3, [r2, #1074]	@ movhi
  34:App/Src/hyperdog_uros_node.c **** 
 178              		.loc 1 34 5 is_stmt 1 view .LVU43
ARM GAS  /tmp/ccFksUoD.s 			page 6


 179 003c FFF7FEFF 		bl	_init_motors_state_publisher
 180              	.LVL6:
  45:App/Src/hyperdog_uros_node.c **** 
 181              		.loc 1 45 1 is_stmt 0 view .LVU44
 182 0040 10BD     		pop	{r4, pc}
 183              	.L11:
 184 0042 00BF     		.align	2
 185              	.L10:
 186 0044 00000000 		.word	.LANCHOR0
 187 0048 14000000 		.word	uros+20
 188 004c 00000000 		.word	.LC1
 189 0050 04000000 		.word	.LC2
 190              		.cfi_endproc
 191              	.LFE134:
 193              		.section	.rodata.spin_hyperdog_node.str1.4,"aMS",%progbits,1
 194              		.align	2
 195              	.LC3:
 196 0000 465200   		.ascii	"FR\000"
 197 0003 00       		.align	2
 198              	.LC4:
 199 0004 48495000 		.ascii	"HIP\000"
 200              		.align	2
 201              	.LC5:
 202 0008 54657374 		.ascii	"Test Msg\000"
 202      204D7367 
 202      00
 203              		.section	.text.spin_hyperdog_node,"ax",%progbits
 204              		.align	1
 205              		.global	spin_hyperdog_node
 206              		.syntax unified
 207              		.thumb
 208              		.thumb_func
 210              	spin_hyperdog_node:
 211              	.LFB136:
  72:App/Src/hyperdog_uros_node.c **** 
  73:App/Src/hyperdog_uros_node.c **** 
  74:App/Src/hyperdog_uros_node.c **** 
  75:App/Src/hyperdog_uros_node.c **** void spin_hyperdog_node()
  76:App/Src/hyperdog_uros_node.c **** {
 212              		.loc 1 76 1 is_stmt 1 view -0
 213              		.cfi_startproc
 214              		@ Volatile: function does not return.
 215              		@ args = 0, pretend = 0, frame = 0
 216              		@ frame_needed = 0, uses_anonymous_args = 0
 217 0000 08B5     		push	{r3, lr}
 218              	.LCFI2:
 219              		.cfi_def_cfa_offset 8
 220              		.cfi_offset 3, -8
 221              		.cfi_offset 14, -4
  77:App/Src/hyperdog_uros_node.c ****     // while (uros.error_code!= UROS_ERROR_)
  78:App/Src/hyperdog_uros_node.c ****     motor_states_.leg.size = 2;
 222              		.loc 1 78 5 view .LVU46
 223              		.loc 1 78 28 is_stmt 0 view .LVU47
 224 0002 2749     		ldr	r1, .L18+16
 225 0004 0223     		movs	r3, #2
 226 0006 4B60     		str	r3, [r1, #4]
  79:App/Src/hyperdog_uros_node.c ****     motor_states_.leg.data = "FR";
ARM GAS  /tmp/ccFksUoD.s 			page 7


 227              		.loc 1 79 5 is_stmt 1 view .LVU48
 228              		.loc 1 79 28 is_stmt 0 view .LVU49
 229 0008 264B     		ldr	r3, .L18+20
 230 000a 0B60     		str	r3, [r1]
  80:App/Src/hyperdog_uros_node.c ****     motor_states_.joint.size = 3;
 231              		.loc 1 80 5 is_stmt 1 view .LVU50
 232              		.loc 1 80 30 is_stmt 0 view .LVU51
 233 000c 0323     		movs	r3, #3
 234 000e 0B61     		str	r3, [r1, #16]
  81:App/Src/hyperdog_uros_node.c ****     motor_states_.joint.data = "HIP";
 235              		.loc 1 81 5 is_stmt 1 view .LVU52
 236              		.loc 1 81 30 is_stmt 0 view .LVU53
 237 0010 254B     		ldr	r3, .L18+24
 238 0012 CB60     		str	r3, [r1, #12]
  82:App/Src/hyperdog_uros_node.c ****     motor_states_.is_available = true;
 239              		.loc 1 82 5 is_stmt 1 view .LVU54
 240              		.loc 1 82 32 is_stmt 0 view .LVU55
 241 0014 0123     		movs	r3, #1
 242 0016 0B76     		strb	r3, [r1, #24]
  83:App/Src/hyperdog_uros_node.c ****     motor_states_.is_enabled = true;
 243              		.loc 1 83 5 is_stmt 1 view .LVU56
 244              		.loc 1 83 30 is_stmt 0 view .LVU57
 245 0018 4B76     		strb	r3, [r1, #25]
  84:App/Src/hyperdog_uros_node.c ****     motor_states_.error_code = 0;
 246              		.loc 1 84 5 is_stmt 1 view .LVU58
 247              		.loc 1 84 30 is_stmt 0 view .LVU59
 248 001a 0022     		movs	r2, #0
 249 001c 8A83     		strh	r2, [r1, #28]	@ movhi
  85:App/Src/hyperdog_uros_node.c ****     motor_states_.feedback.id = 1;
 250              		.loc 1 85 5 is_stmt 1 view .LVU60
 251              		.loc 1 85 31 is_stmt 0 view .LVU61
 252 001e 81F83030 		strb	r3, [r1, #48]
  86:App/Src/hyperdog_uros_node.c ****     motor_states_.feedback.position = 1.23;
 253              		.loc 1 86 5 is_stmt 1 view .LVU62
 254              		.loc 1 86 37 is_stmt 0 view .LVU63
 255 0022 1BA3     		adr	r3, .L18
 256 0024 D3E90023 		ldrd	r2, [r3]
 257 0028 C1E90E23 		strd	r2, [r1, #56]
  87:App/Src/hyperdog_uros_node.c ****     motor_states_.feedback.velocity = 0;
 258              		.loc 1 87 5 is_stmt 1 view .LVU64
 259              		.loc 1 87 37 is_stmt 0 view .LVU65
 260 002c 0022     		movs	r2, #0
 261 002e 0023     		movs	r3, #0
 262 0030 C1E91023 		strd	r2, [r1, #64]
  88:App/Src/hyperdog_uros_node.c ****     motor_states_.feedback.torque = -1.8;
 263              		.loc 1 88 5 is_stmt 1 view .LVU66
 264              		.loc 1 88 35 is_stmt 0 view .LVU67
 265 0034 9FED187B 		vldr.64	d7, .L18+8
 266 0038 81ED127B 		vstr.64	d7, [r1, #72]
  89:App/Src/hyperdog_uros_node.c ****     motor_states_.feedback.vb = 0;
 267              		.loc 1 89 5 is_stmt 1 view .LVU68
 268              		.loc 1 89 31 is_stmt 0 view .LVU69
 269 003c C1E91423 		strd	r2, [r1, #80]
  90:App/Src/hyperdog_uros_node.c ****     motor_states_.status_msg.data = "Test Msg";
 270              		.loc 1 90 5 is_stmt 1 view .LVU70
 271              		.loc 1 90 35 is_stmt 0 view .LVU71
 272 0040 1A4B     		ldr	r3, .L18+28
ARM GAS  /tmp/ccFksUoD.s 			page 8


 273 0042 0B62     		str	r3, [r1, #32]
  91:App/Src/hyperdog_uros_node.c ****     motor_states_.status_msg.size = strlen(motor_states_.status_msg.data);
 274              		.loc 1 91 5 is_stmt 1 view .LVU72
 275              		.loc 1 91 35 is_stmt 0 view .LVU73
 276 0044 0823     		movs	r3, #8
 277 0046 4B62     		str	r3, [r1, #36]
  92:App/Src/hyperdog_uros_node.c **** 
  93:App/Src/hyperdog_uros_node.c ****     hyperdog_node.motors_states_msg.fr_hip_roll = motor_states_;
 278              		.loc 1 93 5 is_stmt 1 view .LVU74
 279              		.loc 1 93 49 is_stmt 0 view .LVU75
 280 0048 5822     		movs	r2, #88
 281 004a 1948     		ldr	r0, .L18+32
 282 004c FFF7FEFF 		bl	memcpy
 283              	.LVL7:
 284 0050 08E0     		b	.L15
 285              	.L17:
 286              	.LBB2:
  94:App/Src/hyperdog_uros_node.c **** 
  95:App/Src/hyperdog_uros_node.c ****     while(1){
  96:App/Src/hyperdog_uros_node.c ****         hyperdog_node.rcl_ret = rcl_publish(&hyperdog_node.motors_states_pub, &hyperdog_node.motors
  97:App/Src/hyperdog_uros_node.c ****         
  98:App/Src/hyperdog_uros_node.c ****         if(hyperdog_node.rcl_ret  != RCL_RET_OK){
  99:App/Src/hyperdog_uros_node.c ****             hyperdog_node.error_code |= NODE_HYPERDOG_ERROR_FAILED_PUB1;
 287              		.loc 1 99 13 is_stmt 1 view .LVU76
 288              		.loc 1 99 38 is_stmt 0 view .LVU77
 289 0052 B4F83234 		ldrh	r3, [r4, #1074]
 290 0056 43F00203 		orr	r3, r3, #2
 291 005a A4F83234 		strh	r3, [r4, #1074]	@ movhi
 292              	.L14:
 100:App/Src/hyperdog_uros_node.c ****         }
 101:App/Src/hyperdog_uros_node.c ****         else{
 102:App/Src/hyperdog_uros_node.c ****             hyperdog_node.error_code &= ~ NODE_HYPERDOG_ERROR_FAILED_PUB1;
 103:App/Src/hyperdog_uros_node.c ****         }
 104:App/Src/hyperdog_uros_node.c ****         osDelay(2);
 293              		.loc 1 104 9 is_stmt 1 view .LVU78
 294 005e 0220     		movs	r0, #2
 295 0060 FFF7FEFF 		bl	osDelay
 296              	.LVL8:
 297              	.LBE2:
  95:App/Src/hyperdog_uros_node.c ****         hyperdog_node.rcl_ret = rcl_publish(&hyperdog_node.motors_states_pub, &hyperdog_node.motors
 298              		.loc 1 95 10 view .LVU79
 299              	.L15:
  95:App/Src/hyperdog_uros_node.c ****         hyperdog_node.rcl_ret = rcl_publish(&hyperdog_node.motors_states_pub, &hyperdog_node.motors
 300              		.loc 1 95 5 view .LVU80
 301              	.LBB3:
  96:App/Src/hyperdog_uros_node.c ****         
 302              		.loc 1 96 9 view .LVU81
  96:App/Src/hyperdog_uros_node.c ****         
 303              		.loc 1 96 33 is_stmt 0 view .LVU82
 304 0064 134C     		ldr	r4, .L18+36
 305 0066 0022     		movs	r2, #0
 306 0068 04F11001 		add	r1, r4, #16
 307 006c 04F10800 		add	r0, r4, #8
 308 0070 FFF7FEFF 		bl	rcl_publish
 309              	.LVL9:
  96:App/Src/hyperdog_uros_node.c ****         
 310              		.loc 1 96 31 view .LVU83
ARM GAS  /tmp/ccFksUoD.s 			page 9


 311 0074 C4F83404 		str	r0, [r4, #1076]
  98:App/Src/hyperdog_uros_node.c ****             hyperdog_node.error_code |= NODE_HYPERDOG_ERROR_FAILED_PUB1;
 312              		.loc 1 98 9 is_stmt 1 view .LVU84
  98:App/Src/hyperdog_uros_node.c ****             hyperdog_node.error_code |= NODE_HYPERDOG_ERROR_FAILED_PUB1;
 313              		.loc 1 98 11 is_stmt 0 view .LVU85
 314 0078 0028     		cmp	r0, #0
 315 007a EAD1     		bne	.L17
 102:App/Src/hyperdog_uros_node.c ****         }
 316              		.loc 1 102 13 is_stmt 1 view .LVU86
 102:App/Src/hyperdog_uros_node.c ****         }
 317              		.loc 1 102 38 is_stmt 0 view .LVU87
 318 007c 0D4A     		ldr	r2, .L18+36
 319 007e B2F83234 		ldrh	r3, [r2, #1074]
 320 0082 23F00203 		bic	r3, r3, #2
 321 0086 A2F83234 		strh	r3, [r2, #1074]	@ movhi
 322 008a E8E7     		b	.L14
 323              	.L19:
 324 008c AFF30080 		.align	3
 325              	.L18:
 326 0090 AE47E17A 		.word	2061584302
 327 0094 14AEF33F 		.word	1072934420
 328 0098 CDCCCCCC 		.word	-858993459
 329 009c CCCCFCBF 		.word	-1073951540
 330 00a0 00000000 		.word	.LANCHOR1
 331 00a4 00000000 		.word	.LC3
 332 00a8 04000000 		.word	.LC4
 333 00ac 08000000 		.word	.LC5
 334 00b0 10000000 		.word	.LANCHOR0+16
 335 00b4 00000000 		.word	.LANCHOR0
 336              	.LBE3:
 337              		.cfi_endproc
 338              	.LFE136:
 340              		.section	.text._destroy_hyperdog_node,"ax",%progbits
 341              		.align	1
 342              		.global	_destroy_hyperdog_node
 343              		.syntax unified
 344              		.thumb
 345              		.thumb_func
 347              	_destroy_hyperdog_node:
 348              	.LFB137:
 105:App/Src/hyperdog_uros_node.c ****     }
 106:App/Src/hyperdog_uros_node.c ****     
 107:App/Src/hyperdog_uros_node.c **** 
 108:App/Src/hyperdog_uros_node.c **** }
 109:App/Src/hyperdog_uros_node.c **** 
 110:App/Src/hyperdog_uros_node.c **** 
 111:App/Src/hyperdog_uros_node.c **** /**
 112:App/Src/hyperdog_uros_node.c ****  * To destroy all the entities of the hyperdog_node and node itself
 113:App/Src/hyperdog_uros_node.c ****  */
 114:App/Src/hyperdog_uros_node.c **** void _destroy_hyperdog_node(){
 349              		.loc 1 114 30 is_stmt 1 view -0
 350              		.cfi_startproc
 351              		@ args = 0, pretend = 0, frame = 0
 352              		@ frame_needed = 0, uses_anonymous_args = 0
 353 0000 10B5     		push	{r4, lr}
 354              	.LCFI3:
 355              		.cfi_def_cfa_offset 8
ARM GAS  /tmp/ccFksUoD.s 			page 10


 356              		.cfi_offset 4, -8
 357              		.cfi_offset 14, -4
 115:App/Src/hyperdog_uros_node.c ****     /* first, destroy all the node's entities */
 116:App/Src/hyperdog_uros_node.c ****     hyperdog_node.rcl_ret = rcl_publisher_fini(
 358              		.loc 1 116 5 view .LVU89
 359              		.loc 1 116 29 is_stmt 0 view .LVU90
 360 0002 074C     		ldr	r4, .L22
 361 0004 2146     		mov	r1, r4
 362 0006 04F10800 		add	r0, r4, #8
 363 000a FFF7FEFF 		bl	rcl_publisher_fini
 364              	.LVL10:
 365              		.loc 1 116 27 view .LVU91
 366 000e C4F83404 		str	r0, [r4, #1076]
 117:App/Src/hyperdog_uros_node.c ****                             &hyperdog_node.motors_states_pub,
 118:App/Src/hyperdog_uros_node.c ****                             &hyperdog_node.node);
 119:App/Src/hyperdog_uros_node.c ****     /// TODO: 
 120:App/Src/hyperdog_uros_node.c **** 
 121:App/Src/hyperdog_uros_node.c ****     /* then destroy the node itself */
 122:App/Src/hyperdog_uros_node.c ****     hyperdog_node.rcl_ret = rcl_node_fini(&hyperdog_node.node);
 367              		.loc 1 122 5 is_stmt 1 view .LVU92
 368              		.loc 1 122 29 is_stmt 0 view .LVU93
 369 0012 2046     		mov	r0, r4
 370 0014 FFF7FEFF 		bl	rcl_node_fini
 371              	.LVL11:
 372              		.loc 1 122 27 view .LVU94
 373 0018 C4F83404 		str	r0, [r4, #1076]
 123:App/Src/hyperdog_uros_node.c **** 
 124:App/Src/hyperdog_uros_node.c **** }
 374              		.loc 1 124 1 view .LVU95
 375 001c 10BD     		pop	{r4, pc}
 376              	.L23:
 377 001e 00BF     		.align	2
 378              	.L22:
 379 0020 00000000 		.word	.LANCHOR0
 380              		.cfi_endproc
 381              	.LFE137:
 383              		.global	motor_states_
 384              		.global	hyperdog_node
 385              		.section	.bss.hyperdog_node,"aw",%nobits
 386              		.align	3
 387              		.set	.LANCHOR0,. + 0
 390              	hyperdog_node:
 391 0000 00000000 		.space	1080
 391      00000000 
 391      00000000 
 391      00000000 
 391      00000000 
 392              		.section	.bss.motor_states_,"aw",%nobits
 393              		.align	3
 394              		.set	.LANCHOR1,. + 0
 397              	motor_states_:
 398 0000 00000000 		.space	88
 398      00000000 
 398      00000000 
 398      00000000 
 398      00000000 
 399              		.text
ARM GAS  /tmp/ccFksUoD.s 			page 11


 400              	.Letext0:
 401              		.file 2 "/usr/share/gcc-arm-none-eabi-10.3-2021.10/arm-none-eabi/include/machine/_default_types.h"
 402              		.file 3 "/usr/share/gcc-arm-none-eabi-10.3-2021.10/arm-none-eabi/include/sys/_stdint.h"
 403              		.file 4 "/usr/share/gcc-arm-none-eabi-10.3-2021.10/lib/gcc/arm-none-eabi/10.3.1/include/stddef.h"
 404              		.file 5 "micro_ros_stm32cubemx_utils/microros_static_library/libmicroros/microros_include/rcutils/
 405              		.file 6 "micro_ros_stm32cubemx_utils/microros_static_library/libmicroros/microros_include/rcl/allo
 406              		.file 7 "micro_ros_stm32cubemx_utils/microros_static_library/libmicroros/microros_include/rmw/ret_
 407              		.file 8 "micro_ros_stm32cubemx_utils/microros_static_library/libmicroros/microros_include/rcutils/
 408              		.file 9 "micro_ros_stm32cubemx_utils/microros_static_library/libmicroros/microros_include/rmw/type
 409              		.file 10 "micro_ros_stm32cubemx_utils/microros_static_library/libmicroros/microros_include/rcl/typ
 410              		.file 11 "micro_ros_stm32cubemx_utils/microros_static_library/libmicroros/microros_include/rcl/ini
 411              		.file 12 "micro_ros_stm32cubemx_utils/microros_static_library/libmicroros/microros_include/rcl/con
 412              		.file 13 "micro_ros_stm32cubemx_utils/microros_static_library/libmicroros/microros_include/rcl/nod
 413              		.file 14 "micro_ros_stm32cubemx_utils/microros_static_library/libmicroros/microros_include/rcl/pub
 414              		.file 15 "micro_ros_stm32cubemx_utils/microros_static_library/libmicroros/microros_include/rcl/tim
 415              		.file 16 "micro_ros_stm32cubemx_utils/microros_static_library/libmicroros/microros_include/rmw/qos
 416              		.file 17 "micro_ros_stm32cubemx_utils/microros_static_library/libmicroros/microros_include/rclc/ty
 417              		.file 18 "App/Inc/hyperdog_uros_app.h"
 418              		.file 19 "micro_ros_stm32cubemx_utils/microros_static_library/libmicroros/microros_include/rosidl_
 419              		.file 20 "hyperdog_uros_msgs/include/hyperdog_uros_msgs/msg/detail/motor_feedback__struct.h"
 420              		.file 21 "hyperdog_uros_msgs/include/hyperdog_uros_msgs/msg/detail/motor_states__struct.h"
 421              		.file 22 "hyperdog_uros_msgs/include/hyperdog_uros_msgs/msg/detail/motors_states__struct.h"
 422              		.file 23 "App/Inc/hyperdog_uros_node.h"
 423              		.file 24 "hyperdog_uros_msgs/include/hyperdog_uros_msgs/msg/detail/motors_states__type_support.h"
 424              		.file 25 "micro_ros_stm32cubemx_utils/microros_static_library/libmicroros/microros_include/rclc/pu
 425              		.file 26 "/usr/share/gcc-arm-none-eabi-10.3-2021.10/arm-none-eabi/include/stdlib.h"
 426              		.file 27 "micro_ros_stm32cubemx_utils/microros_static_library/libmicroros/microros_include/rclc/no
 427              		.file 28 "<built-in>"
ARM GAS  /tmp/ccFksUoD.s 			page 12

