ARM GAS  /tmp/ccbKDT3N.s 			page 1


   1              		.cpu cortex-m4
   2              		.arch armv7e-m
   3              		.fpu fpv4-sp-d16
   4              		.eabi_attribute 27, 1
   5              		.eabi_attribute 28, 1
   6              		.eabi_attribute 20, 1
   7              		.eabi_attribute 21, 1
   8              		.eabi_attribute 23, 3
   9              		.eabi_attribute 24, 1
  10              		.eabi_attribute 25, 1
  11              		.eabi_attribute 26, 1
  12              		.eabi_attribute 30, 1
  13              		.eabi_attribute 34, 1
  14              		.eabi_attribute 18, 4
  15              		.file	"error_indicator.c"
  16              		.text
  17              	.Ltext0:
  18              		.cfi_sections	.debug_frame
  19              		.section	.text.blink_error,"ax",%progbits
  20              		.align	1
  21              		.global	blink_error
  22              		.syntax unified
  23              		.thumb
  24              		.thumb_func
  26              	blink_error:
  27              	.LVL0:
  28              	.LFB138:
  29              		.file 1 "App/Src/error_indicator.c"
   1:App/Src/error_indicator.c **** #include "error_indicator.h"
   2:App/Src/error_indicator.c **** 
   3:App/Src/error_indicator.c **** 
   4:App/Src/error_indicator.c **** rmw_ret_t rmw_err_code;
   5:App/Src/error_indicator.c **** rcl_ret_t rcl_err_code;
   6:App/Src/error_indicator.c **** 
   7:App/Src/error_indicator.c **** void blink_error(int LD, int times, int on_period, int off_period){
  30              		.loc 1 7 67 view -0
  31              		.cfi_startproc
  32              		@ args = 0, pretend = 0, frame = 0
  33              		@ frame_needed = 0, uses_anonymous_args = 0
  34              		.loc 1 7 67 is_stmt 0 view .LVU1
  35 0000 2DE9F041 		push	{r4, r5, r6, r7, r8, lr}
  36              	.LCFI0:
  37              		.cfi_def_cfa_offset 24
  38              		.cfi_offset 4, -24
  39              		.cfi_offset 5, -20
  40              		.cfi_offset 6, -16
  41              		.cfi_offset 7, -12
  42              		.cfi_offset 8, -8
  43              		.cfi_offset 14, -4
  44 0004 0746     		mov	r7, r0
  45 0006 0C46     		mov	r4, r1
  46 0008 1546     		mov	r5, r2
  47 000a 1E46     		mov	r6, r3
   8:App/Src/error_indicator.c ****     HAL_GPIO_WritePin(LD3_GPIO_Port, LD3_Pin, GPIO_PIN_RESET);
  48              		.loc 1 8 5 is_stmt 1 view .LVU2
  49 000c DFF86081 		ldr	r8, .L17
  50 0010 0022     		movs	r2, #0
ARM GAS  /tmp/ccbKDT3N.s 			page 2


  51              	.LVL1:
  52              		.loc 1 8 5 is_stmt 0 view .LVU3
  53 0012 4FF40051 		mov	r1, #8192
  54              	.LVL2:
  55              		.loc 1 8 5 view .LVU4
  56 0016 4046     		mov	r0, r8
  57              	.LVL3:
  58              		.loc 1 8 5 view .LVU5
  59 0018 FFF7FEFF 		bl	HAL_GPIO_WritePin
  60              	.LVL4:
   9:App/Src/error_indicator.c ****     HAL_GPIO_WritePin(LD4_GPIO_Port, LD4_Pin, GPIO_PIN_RESET);
  61              		.loc 1 9 5 is_stmt 1 view .LVU6
  62 001c 0022     		movs	r2, #0
  63 001e 4FF48051 		mov	r1, #4096
  64 0022 4046     		mov	r0, r8
  65 0024 FFF7FEFF 		bl	HAL_GPIO_WritePin
  66              	.LVL5:
  10:App/Src/error_indicator.c ****     HAL_GPIO_WritePin(LD4_GPIO_Port, LD5_Pin, GPIO_PIN_RESET);
  67              		.loc 1 10 5 view .LVU7
  68 0028 0022     		movs	r2, #0
  69 002a 4FF48041 		mov	r1, #16384
  70 002e 4046     		mov	r0, r8
  71 0030 FFF7FEFF 		bl	HAL_GPIO_WritePin
  72              	.LVL6:
  11:App/Src/error_indicator.c ****     HAL_GPIO_WritePin(LD6_GPIO_Port, LD6_Pin, GPIO_PIN_RESET);
  73              		.loc 1 11 5 view .LVU8
  74 0034 0022     		movs	r2, #0
  75 0036 4FF40041 		mov	r1, #32768
  76 003a 4046     		mov	r0, r8
  77 003c FFF7FEFF 		bl	HAL_GPIO_WritePin
  78              	.LVL7:
  12:App/Src/error_indicator.c ****     switch (LD)
  79              		.loc 1 12 5 view .LVU9
  80 0040 F81E     		subs	r0, r7, #3
  81 0042 0328     		cmp	r0, #3
  82 0044 26D8     		bhi	.L1
  83 0046 DFE800F0 		tbb	[pc, r0]
  84              	.L4:
  85 004a 02       		.byte	(.L7-.L4)/2
  86 004b 27       		.byte	(.L6-.L4)/2
  87 004c 4B       		.byte	(.L5-.L4)/2
  88 004d 6F       		.byte	(.L3-.L4)/2
  89              		.p2align 1
  90              	.L7:
  13:App/Src/error_indicator.c ****     {
  14:App/Src/error_indicator.c ****     case 3:
  15:App/Src/error_indicator.c ****         HAL_GPIO_WritePin(LD3_GPIO_Port, LD3_Pin, GPIO_PIN_RESET);
  91              		.loc 1 15 9 view .LVU10
  92 004e 0022     		movs	r2, #0
  93 0050 4FF40051 		mov	r1, #8192
  94 0054 4648     		ldr	r0, .L17
  95 0056 FFF7FEFF 		bl	HAL_GPIO_WritePin
  96              	.LVL8:
  16:App/Src/error_indicator.c ****         for (int i = 0; i<times; i++){
  97              		.loc 1 16 9 view .LVU11
  98              	.LBB2:
  99              		.loc 1 16 14 view .LVU12
ARM GAS  /tmp/ccbKDT3N.s 			page 3


 100              		.loc 1 16 18 is_stmt 0 view .LVU13
 101 005a 0027     		movs	r7, #0
 102              	.LVL9:
 103              		.loc 1 16 9 view .LVU14
 104 005c 14E0     		b	.L8
 105              	.LVL10:
 106              	.L9:
  17:App/Src/error_indicator.c ****             HAL_GPIO_WritePin(LD3_GPIO_Port, LD3_Pin, GPIO_PIN_SET);
 107              		.loc 1 17 13 is_stmt 1 discriminator 3 view .LVU15
 108 005e DFF81081 		ldr	r8, .L17
 109 0062 0122     		movs	r2, #1
 110 0064 4FF40051 		mov	r1, #8192
 111 0068 4046     		mov	r0, r8
 112 006a FFF7FEFF 		bl	HAL_GPIO_WritePin
 113              	.LVL11:
  18:App/Src/error_indicator.c ****             osDelay(on_period);
 114              		.loc 1 18 13 discriminator 3 view .LVU16
 115 006e 2846     		mov	r0, r5
 116 0070 FFF7FEFF 		bl	osDelay
 117              	.LVL12:
  19:App/Src/error_indicator.c ****             HAL_GPIO_WritePin(LD3_GPIO_Port, LD3_Pin, GPIO_PIN_RESET);
 118              		.loc 1 19 13 discriminator 3 view .LVU17
 119 0074 0022     		movs	r2, #0
 120 0076 4FF40051 		mov	r1, #8192
 121 007a 4046     		mov	r0, r8
 122 007c FFF7FEFF 		bl	HAL_GPIO_WritePin
 123              	.LVL13:
  20:App/Src/error_indicator.c ****             osDelay(off_period);
 124              		.loc 1 20 13 discriminator 3 view .LVU18
 125 0080 3046     		mov	r0, r6
 126 0082 FFF7FEFF 		bl	osDelay
 127              	.LVL14:
  16:App/Src/error_indicator.c ****             HAL_GPIO_WritePin(LD3_GPIO_Port, LD3_Pin, GPIO_PIN_SET);
 128              		.loc 1 16 34 discriminator 3 view .LVU19
  16:App/Src/error_indicator.c ****             HAL_GPIO_WritePin(LD3_GPIO_Port, LD3_Pin, GPIO_PIN_SET);
 129              		.loc 1 16 35 is_stmt 0 discriminator 3 view .LVU20
 130 0086 0137     		adds	r7, r7, #1
 131              	.LVL15:
 132              	.L8:
  16:App/Src/error_indicator.c ****             HAL_GPIO_WritePin(LD3_GPIO_Port, LD3_Pin, GPIO_PIN_SET);
 133              		.loc 1 16 25 is_stmt 1 discriminator 1 view .LVU21
  16:App/Src/error_indicator.c ****             HAL_GPIO_WritePin(LD3_GPIO_Port, LD3_Pin, GPIO_PIN_SET);
 134              		.loc 1 16 9 is_stmt 0 discriminator 1 view .LVU22
 135 0088 A742     		cmp	r7, r4
 136 008a E8DB     		blt	.L9
 137              	.LBE2:
  21:App/Src/error_indicator.c ****         }
  22:App/Src/error_indicator.c ****         osDelay(1000);
 138              		.loc 1 22 9 is_stmt 1 view .LVU23
 139 008c 4FF47A70 		mov	r0, #1000
 140 0090 FFF7FEFF 		bl	osDelay
 141              	.LVL16:
  23:App/Src/error_indicator.c ****         break;
 142              		.loc 1 23 9 view .LVU24
 143              	.L1:
  24:App/Src/error_indicator.c ****     case 4:
  25:App/Src/error_indicator.c ****         HAL_GPIO_WritePin(LD4_GPIO_Port, LD4_Pin, GPIO_PIN_RESET);
ARM GAS  /tmp/ccbKDT3N.s 			page 4


  26:App/Src/error_indicator.c ****         for (int i = 0; i<times; i++){
  27:App/Src/error_indicator.c ****             HAL_GPIO_WritePin(LD4_GPIO_Port, LD4_Pin, GPIO_PIN_SET);
  28:App/Src/error_indicator.c ****             osDelay(on_period);
  29:App/Src/error_indicator.c ****             HAL_GPIO_WritePin(LD4_GPIO_Port, LD4_Pin, GPIO_PIN_RESET);
  30:App/Src/error_indicator.c ****             osDelay(off_period);
  31:App/Src/error_indicator.c ****         }
  32:App/Src/error_indicator.c ****         osDelay(1000);
  33:App/Src/error_indicator.c ****         break;
  34:App/Src/error_indicator.c ****     case 5:
  35:App/Src/error_indicator.c ****         HAL_GPIO_WritePin(LD5_GPIO_Port, LD5_Pin, GPIO_PIN_RESET);
  36:App/Src/error_indicator.c ****         for (int i = 0; i<times; i++){
  37:App/Src/error_indicator.c ****             HAL_GPIO_WritePin(LD5_GPIO_Port, LD5_Pin, GPIO_PIN_SET);
  38:App/Src/error_indicator.c ****             osDelay(on_period);
  39:App/Src/error_indicator.c ****             HAL_GPIO_WritePin(LD5_GPIO_Port, LD5_Pin, GPIO_PIN_RESET);
  40:App/Src/error_indicator.c ****             osDelay(off_period);
  41:App/Src/error_indicator.c ****         }
  42:App/Src/error_indicator.c ****         osDelay(1000);
  43:App/Src/error_indicator.c ****         break;
  44:App/Src/error_indicator.c ****     case 6:
  45:App/Src/error_indicator.c ****         HAL_GPIO_WritePin(LD6_GPIO_Port, LD6_Pin, GPIO_PIN_RESET);
  46:App/Src/error_indicator.c ****         for (int i = 0; i<times; i++){
  47:App/Src/error_indicator.c ****             HAL_GPIO_WritePin(LD6_GPIO_Port, LD6_Pin, GPIO_PIN_SET);
  48:App/Src/error_indicator.c ****             osDelay(on_period);
  49:App/Src/error_indicator.c ****             HAL_GPIO_WritePin(LD6_GPIO_Port, LD6_Pin, GPIO_PIN_RESET);
  50:App/Src/error_indicator.c ****             osDelay(off_period);
  51:App/Src/error_indicator.c ****         }
  52:App/Src/error_indicator.c ****         osDelay(1000);
  53:App/Src/error_indicator.c ****         break;
  54:App/Src/error_indicator.c ****     
  55:App/Src/error_indicator.c ****     default:
  56:App/Src/error_indicator.c ****         break;
  57:App/Src/error_indicator.c ****     }
  58:App/Src/error_indicator.c **** }
 144              		.loc 1 58 1 is_stmt 0 view .LVU25
 145 0094 BDE8F081 		pop	{r4, r5, r6, r7, r8, pc}
 146              	.LVL17:
 147              	.L6:
  25:App/Src/error_indicator.c ****         for (int i = 0; i<times; i++){
 148              		.loc 1 25 9 is_stmt 1 view .LVU26
 149 0098 0022     		movs	r2, #0
 150 009a 4FF48051 		mov	r1, #4096
 151 009e 3448     		ldr	r0, .L17
 152 00a0 FFF7FEFF 		bl	HAL_GPIO_WritePin
 153              	.LVL18:
  26:App/Src/error_indicator.c ****             HAL_GPIO_WritePin(LD4_GPIO_Port, LD4_Pin, GPIO_PIN_SET);
 154              		.loc 1 26 9 view .LVU27
 155              	.LBB3:
  26:App/Src/error_indicator.c ****             HAL_GPIO_WritePin(LD4_GPIO_Port, LD4_Pin, GPIO_PIN_SET);
 156              		.loc 1 26 14 view .LVU28
  26:App/Src/error_indicator.c ****             HAL_GPIO_WritePin(LD4_GPIO_Port, LD4_Pin, GPIO_PIN_SET);
 157              		.loc 1 26 18 is_stmt 0 view .LVU29
 158 00a4 0027     		movs	r7, #0
 159              	.LVL19:
  26:App/Src/error_indicator.c ****             HAL_GPIO_WritePin(LD4_GPIO_Port, LD4_Pin, GPIO_PIN_SET);
 160              		.loc 1 26 9 view .LVU30
 161 00a6 14E0     		b	.L10
 162              	.LVL20:
ARM GAS  /tmp/ccbKDT3N.s 			page 5


 163              	.L11:
  27:App/Src/error_indicator.c ****             osDelay(on_period);
 164              		.loc 1 27 13 is_stmt 1 discriminator 3 view .LVU31
 165 00a8 DFF8C480 		ldr	r8, .L17
 166 00ac 0122     		movs	r2, #1
 167 00ae 4FF48051 		mov	r1, #4096
 168 00b2 4046     		mov	r0, r8
 169 00b4 FFF7FEFF 		bl	HAL_GPIO_WritePin
 170              	.LVL21:
  28:App/Src/error_indicator.c ****             HAL_GPIO_WritePin(LD4_GPIO_Port, LD4_Pin, GPIO_PIN_RESET);
 171              		.loc 1 28 13 discriminator 3 view .LVU32
 172 00b8 2846     		mov	r0, r5
 173 00ba FFF7FEFF 		bl	osDelay
 174              	.LVL22:
  29:App/Src/error_indicator.c ****             osDelay(off_period);
 175              		.loc 1 29 13 discriminator 3 view .LVU33
 176 00be 0022     		movs	r2, #0
 177 00c0 4FF48051 		mov	r1, #4096
 178 00c4 4046     		mov	r0, r8
 179 00c6 FFF7FEFF 		bl	HAL_GPIO_WritePin
 180              	.LVL23:
  30:App/Src/error_indicator.c ****         }
 181              		.loc 1 30 13 discriminator 3 view .LVU34
 182 00ca 3046     		mov	r0, r6
 183 00cc FFF7FEFF 		bl	osDelay
 184              	.LVL24:
  26:App/Src/error_indicator.c ****             HAL_GPIO_WritePin(LD4_GPIO_Port, LD4_Pin, GPIO_PIN_SET);
 185              		.loc 1 26 34 discriminator 3 view .LVU35
  26:App/Src/error_indicator.c ****             HAL_GPIO_WritePin(LD4_GPIO_Port, LD4_Pin, GPIO_PIN_SET);
 186              		.loc 1 26 35 is_stmt 0 discriminator 3 view .LVU36
 187 00d0 0137     		adds	r7, r7, #1
 188              	.LVL25:
 189              	.L10:
  26:App/Src/error_indicator.c ****             HAL_GPIO_WritePin(LD4_GPIO_Port, LD4_Pin, GPIO_PIN_SET);
 190              		.loc 1 26 25 is_stmt 1 discriminator 1 view .LVU37
  26:App/Src/error_indicator.c ****             HAL_GPIO_WritePin(LD4_GPIO_Port, LD4_Pin, GPIO_PIN_SET);
 191              		.loc 1 26 9 is_stmt 0 discriminator 1 view .LVU38
 192 00d2 A742     		cmp	r7, r4
 193 00d4 E8DB     		blt	.L11
 194              	.LBE3:
  32:App/Src/error_indicator.c ****         break;
 195              		.loc 1 32 9 is_stmt 1 view .LVU39
 196 00d6 4FF47A70 		mov	r0, #1000
 197 00da FFF7FEFF 		bl	osDelay
 198              	.LVL26:
  33:App/Src/error_indicator.c ****     case 5:
 199              		.loc 1 33 9 view .LVU40
 200 00de D9E7     		b	.L1
 201              	.LVL27:
 202              	.L5:
  35:App/Src/error_indicator.c ****         for (int i = 0; i<times; i++){
 203              		.loc 1 35 9 view .LVU41
 204 00e0 0022     		movs	r2, #0
 205 00e2 4FF48041 		mov	r1, #16384
 206 00e6 2248     		ldr	r0, .L17
 207 00e8 FFF7FEFF 		bl	HAL_GPIO_WritePin
 208              	.LVL28:
ARM GAS  /tmp/ccbKDT3N.s 			page 6


  36:App/Src/error_indicator.c ****             HAL_GPIO_WritePin(LD5_GPIO_Port, LD5_Pin, GPIO_PIN_SET);
 209              		.loc 1 36 9 view .LVU42
 210              	.LBB4:
  36:App/Src/error_indicator.c ****             HAL_GPIO_WritePin(LD5_GPIO_Port, LD5_Pin, GPIO_PIN_SET);
 211              		.loc 1 36 14 view .LVU43
  36:App/Src/error_indicator.c ****             HAL_GPIO_WritePin(LD5_GPIO_Port, LD5_Pin, GPIO_PIN_SET);
 212              		.loc 1 36 18 is_stmt 0 view .LVU44
 213 00ec 0027     		movs	r7, #0
 214              	.LVL29:
  36:App/Src/error_indicator.c ****             HAL_GPIO_WritePin(LD5_GPIO_Port, LD5_Pin, GPIO_PIN_SET);
 215              		.loc 1 36 9 view .LVU45
 216 00ee 14E0     		b	.L12
 217              	.LVL30:
 218              	.L13:
  37:App/Src/error_indicator.c ****             osDelay(on_period);
 219              		.loc 1 37 13 is_stmt 1 discriminator 3 view .LVU46
 220 00f0 DFF87C80 		ldr	r8, .L17
 221 00f4 0122     		movs	r2, #1
 222 00f6 4FF48041 		mov	r1, #16384
 223 00fa 4046     		mov	r0, r8
 224 00fc FFF7FEFF 		bl	HAL_GPIO_WritePin
 225              	.LVL31:
  38:App/Src/error_indicator.c ****             HAL_GPIO_WritePin(LD5_GPIO_Port, LD5_Pin, GPIO_PIN_RESET);
 226              		.loc 1 38 13 discriminator 3 view .LVU47
 227 0100 2846     		mov	r0, r5
 228 0102 FFF7FEFF 		bl	osDelay
 229              	.LVL32:
  39:App/Src/error_indicator.c ****             osDelay(off_period);
 230              		.loc 1 39 13 discriminator 3 view .LVU48
 231 0106 0022     		movs	r2, #0
 232 0108 4FF48041 		mov	r1, #16384
 233 010c 4046     		mov	r0, r8
 234 010e FFF7FEFF 		bl	HAL_GPIO_WritePin
 235              	.LVL33:
  40:App/Src/error_indicator.c ****         }
 236              		.loc 1 40 13 discriminator 3 view .LVU49
 237 0112 3046     		mov	r0, r6
 238 0114 FFF7FEFF 		bl	osDelay
 239              	.LVL34:
  36:App/Src/error_indicator.c ****             HAL_GPIO_WritePin(LD5_GPIO_Port, LD5_Pin, GPIO_PIN_SET);
 240              		.loc 1 36 34 discriminator 3 view .LVU50
  36:App/Src/error_indicator.c ****             HAL_GPIO_WritePin(LD5_GPIO_Port, LD5_Pin, GPIO_PIN_SET);
 241              		.loc 1 36 35 is_stmt 0 discriminator 3 view .LVU51
 242 0118 0137     		adds	r7, r7, #1
 243              	.LVL35:
 244              	.L12:
  36:App/Src/error_indicator.c ****             HAL_GPIO_WritePin(LD5_GPIO_Port, LD5_Pin, GPIO_PIN_SET);
 245              		.loc 1 36 25 is_stmt 1 discriminator 1 view .LVU52
  36:App/Src/error_indicator.c ****             HAL_GPIO_WritePin(LD5_GPIO_Port, LD5_Pin, GPIO_PIN_SET);
 246              		.loc 1 36 9 is_stmt 0 discriminator 1 view .LVU53
 247 011a A742     		cmp	r7, r4
 248 011c E8DB     		blt	.L13
 249              	.LBE4:
  42:App/Src/error_indicator.c ****         break;
 250              		.loc 1 42 9 is_stmt 1 view .LVU54
 251 011e 4FF47A70 		mov	r0, #1000
 252 0122 FFF7FEFF 		bl	osDelay
ARM GAS  /tmp/ccbKDT3N.s 			page 7


 253              	.LVL36:
  43:App/Src/error_indicator.c ****     case 6:
 254              		.loc 1 43 9 view .LVU55
 255 0126 B5E7     		b	.L1
 256              	.LVL37:
 257              	.L3:
  45:App/Src/error_indicator.c ****         for (int i = 0; i<times; i++){
 258              		.loc 1 45 9 view .LVU56
 259 0128 0022     		movs	r2, #0
 260 012a 4FF40041 		mov	r1, #32768
 261 012e 1048     		ldr	r0, .L17
 262 0130 FFF7FEFF 		bl	HAL_GPIO_WritePin
 263              	.LVL38:
  46:App/Src/error_indicator.c ****             HAL_GPIO_WritePin(LD6_GPIO_Port, LD6_Pin, GPIO_PIN_SET);
 264              		.loc 1 46 9 view .LVU57
 265              	.LBB5:
  46:App/Src/error_indicator.c ****             HAL_GPIO_WritePin(LD6_GPIO_Port, LD6_Pin, GPIO_PIN_SET);
 266              		.loc 1 46 14 view .LVU58
  46:App/Src/error_indicator.c ****             HAL_GPIO_WritePin(LD6_GPIO_Port, LD6_Pin, GPIO_PIN_SET);
 267              		.loc 1 46 18 is_stmt 0 view .LVU59
 268 0134 0027     		movs	r7, #0
 269              	.LVL39:
  46:App/Src/error_indicator.c ****             HAL_GPIO_WritePin(LD6_GPIO_Port, LD6_Pin, GPIO_PIN_SET);
 270              		.loc 1 46 9 view .LVU60
 271 0136 14E0     		b	.L14
 272              	.LVL40:
 273              	.L15:
  47:App/Src/error_indicator.c ****             osDelay(on_period);
 274              		.loc 1 47 13 is_stmt 1 discriminator 3 view .LVU61
 275 0138 DFF83480 		ldr	r8, .L17
 276 013c 0122     		movs	r2, #1
 277 013e 4FF40041 		mov	r1, #32768
 278 0142 4046     		mov	r0, r8
 279 0144 FFF7FEFF 		bl	HAL_GPIO_WritePin
 280              	.LVL41:
  48:App/Src/error_indicator.c ****             HAL_GPIO_WritePin(LD6_GPIO_Port, LD6_Pin, GPIO_PIN_RESET);
 281              		.loc 1 48 13 discriminator 3 view .LVU62
 282 0148 2846     		mov	r0, r5
 283 014a FFF7FEFF 		bl	osDelay
 284              	.LVL42:
  49:App/Src/error_indicator.c ****             osDelay(off_period);
 285              		.loc 1 49 13 discriminator 3 view .LVU63
 286 014e 0022     		movs	r2, #0
 287 0150 4FF40041 		mov	r1, #32768
 288 0154 4046     		mov	r0, r8
 289 0156 FFF7FEFF 		bl	HAL_GPIO_WritePin
 290              	.LVL43:
  50:App/Src/error_indicator.c ****         }
 291              		.loc 1 50 13 discriminator 3 view .LVU64
 292 015a 3046     		mov	r0, r6
 293 015c FFF7FEFF 		bl	osDelay
 294              	.LVL44:
  46:App/Src/error_indicator.c ****             HAL_GPIO_WritePin(LD6_GPIO_Port, LD6_Pin, GPIO_PIN_SET);
 295              		.loc 1 46 34 discriminator 3 view .LVU65
  46:App/Src/error_indicator.c ****             HAL_GPIO_WritePin(LD6_GPIO_Port, LD6_Pin, GPIO_PIN_SET);
 296              		.loc 1 46 35 is_stmt 0 discriminator 3 view .LVU66
 297 0160 0137     		adds	r7, r7, #1
ARM GAS  /tmp/ccbKDT3N.s 			page 8


 298              	.LVL45:
 299              	.L14:
  46:App/Src/error_indicator.c ****             HAL_GPIO_WritePin(LD6_GPIO_Port, LD6_Pin, GPIO_PIN_SET);
 300              		.loc 1 46 25 is_stmt 1 discriminator 1 view .LVU67
  46:App/Src/error_indicator.c ****             HAL_GPIO_WritePin(LD6_GPIO_Port, LD6_Pin, GPIO_PIN_SET);
 301              		.loc 1 46 9 is_stmt 0 discriminator 1 view .LVU68
 302 0162 A742     		cmp	r7, r4
 303 0164 E8DB     		blt	.L15
 304              	.LBE5:
  52:App/Src/error_indicator.c ****         break;
 305              		.loc 1 52 9 is_stmt 1 view .LVU69
 306 0166 4FF47A70 		mov	r0, #1000
 307 016a FFF7FEFF 		bl	osDelay
 308              	.LVL46:
  53:App/Src/error_indicator.c ****     
 309              		.loc 1 53 9 view .LVU70
 310              		.loc 1 58 1 is_stmt 0 view .LVU71
 311 016e 91E7     		b	.L1
 312              	.L18:
 313              		.align	2
 314              	.L17:
 315 0170 000C0240 		.word	1073875968
 316              		.cfi_endproc
 317              	.LFE138:
 319              		.section	.text.no_error,"ax",%progbits
 320              		.align	1
 321              		.global	no_error
 322              		.syntax unified
 323              		.thumb
 324              		.thumb_func
 326              	no_error:
 327              	.LFB139:
  59:App/Src/error_indicator.c **** 
  60:App/Src/error_indicator.c **** void no_error(){
 328              		.loc 1 60 16 is_stmt 1 view -0
 329              		.cfi_startproc
 330              		@ args = 0, pretend = 0, frame = 0
 331              		@ frame_needed = 0, uses_anonymous_args = 0
 332 0000 10B5     		push	{r4, lr}
 333              	.LCFI1:
 334              		.cfi_def_cfa_offset 8
 335              		.cfi_offset 4, -8
 336              		.cfi_offset 14, -4
  61:App/Src/error_indicator.c ****     HAL_GPIO_WritePin(LD4_GPIO_Port, LD4_Pin, GPIO_PIN_RESET);
 337              		.loc 1 61 5 view .LVU73
 338 0002 234C     		ldr	r4, .L21
 339 0004 0022     		movs	r2, #0
 340 0006 4FF48051 		mov	r1, #4096
 341 000a 2046     		mov	r0, r4
 342 000c FFF7FEFF 		bl	HAL_GPIO_WritePin
 343              	.LVL47:
  62:App/Src/error_indicator.c ****     osDelay(100);
 344              		.loc 1 62 5 view .LVU74
 345 0010 6420     		movs	r0, #100
 346 0012 FFF7FEFF 		bl	osDelay
 347              	.LVL48:
  63:App/Src/error_indicator.c ****     HAL_GPIO_WritePin(LD3_GPIO_Port, LD3_Pin, GPIO_PIN_SET);
ARM GAS  /tmp/ccbKDT3N.s 			page 9


 348              		.loc 1 63 5 view .LVU75
 349 0016 0122     		movs	r2, #1
 350 0018 4FF40051 		mov	r1, #8192
 351 001c 2046     		mov	r0, r4
 352 001e FFF7FEFF 		bl	HAL_GPIO_WritePin
 353              	.LVL49:
  64:App/Src/error_indicator.c ****     osDelay(100);
 354              		.loc 1 64 5 view .LVU76
 355 0022 6420     		movs	r0, #100
 356 0024 FFF7FEFF 		bl	osDelay
 357              	.LVL50:
  65:App/Src/error_indicator.c ****     HAL_GPIO_WritePin(LD5_GPIO_Port, LD5_Pin, GPIO_PIN_SET);
 358              		.loc 1 65 5 view .LVU77
 359 0028 0122     		movs	r2, #1
 360 002a 4FF48041 		mov	r1, #16384
 361 002e 2046     		mov	r0, r4
 362 0030 FFF7FEFF 		bl	HAL_GPIO_WritePin
 363              	.LVL51:
  66:App/Src/error_indicator.c ****     osDelay(100);
 364              		.loc 1 66 5 view .LVU78
 365 0034 6420     		movs	r0, #100
 366 0036 FFF7FEFF 		bl	osDelay
 367              	.LVL52:
  67:App/Src/error_indicator.c ****     HAL_GPIO_WritePin(LD3_GPIO_Port, LD3_Pin, GPIO_PIN_RESET);
 368              		.loc 1 67 5 view .LVU79
 369 003a 0022     		movs	r2, #0
 370 003c 4FF40051 		mov	r1, #8192
 371 0040 2046     		mov	r0, r4
 372 0042 FFF7FEFF 		bl	HAL_GPIO_WritePin
 373              	.LVL53:
  68:App/Src/error_indicator.c ****     osDelay(100);
 374              		.loc 1 68 5 view .LVU80
 375 0046 6420     		movs	r0, #100
 376 0048 FFF7FEFF 		bl	osDelay
 377              	.LVL54:
  69:App/Src/error_indicator.c ****     HAL_GPIO_WritePin(LD6_GPIO_Port, LD6_Pin, GPIO_PIN_SET);
 378              		.loc 1 69 5 view .LVU81
 379 004c 0122     		movs	r2, #1
 380 004e 4FF40041 		mov	r1, #32768
 381 0052 2046     		mov	r0, r4
 382 0054 FFF7FEFF 		bl	HAL_GPIO_WritePin
 383              	.LVL55:
  70:App/Src/error_indicator.c ****     osDelay(100);
 384              		.loc 1 70 5 view .LVU82
 385 0058 6420     		movs	r0, #100
 386 005a FFF7FEFF 		bl	osDelay
 387              	.LVL56:
  71:App/Src/error_indicator.c ****     HAL_GPIO_WritePin(LD5_GPIO_Port, LD5_Pin, GPIO_PIN_RESET);
 388              		.loc 1 71 5 view .LVU83
 389 005e 0022     		movs	r2, #0
 390 0060 4FF48041 		mov	r1, #16384
 391 0064 2046     		mov	r0, r4
 392 0066 FFF7FEFF 		bl	HAL_GPIO_WritePin
 393              	.LVL57:
  72:App/Src/error_indicator.c ****     osDelay(100);
 394              		.loc 1 72 5 view .LVU84
 395 006a 6420     		movs	r0, #100
ARM GAS  /tmp/ccbKDT3N.s 			page 10


 396 006c FFF7FEFF 		bl	osDelay
 397              	.LVL58:
  73:App/Src/error_indicator.c ****     HAL_GPIO_WritePin(LD4_GPIO_Port, LD4_Pin, GPIO_PIN_SET);
 398              		.loc 1 73 5 view .LVU85
 399 0070 0122     		movs	r2, #1
 400 0072 4FF48051 		mov	r1, #4096
 401 0076 2046     		mov	r0, r4
 402 0078 FFF7FEFF 		bl	HAL_GPIO_WritePin
 403              	.LVL59:
  74:App/Src/error_indicator.c ****     osDelay(100);
 404              		.loc 1 74 5 view .LVU86
 405 007c 6420     		movs	r0, #100
 406 007e FFF7FEFF 		bl	osDelay
 407              	.LVL60:
  75:App/Src/error_indicator.c ****     HAL_GPIO_WritePin(LD6_GPIO_Port, LD6_Pin, GPIO_PIN_RESET);
 408              		.loc 1 75 5 view .LVU87
 409 0082 0022     		movs	r2, #0
 410 0084 4FF40041 		mov	r1, #32768
 411 0088 2046     		mov	r0, r4
 412 008a FFF7FEFF 		bl	HAL_GPIO_WritePin
 413              	.LVL61:
  76:App/Src/error_indicator.c **** }
 414              		.loc 1 76 1 is_stmt 0 view .LVU88
 415 008e 10BD     		pop	{r4, pc}
 416              	.L22:
 417              		.align	2
 418              	.L21:
 419 0090 000C0240 		.word	1073875968
 420              		.cfi_endproc
 421              	.LFE139:
 423              		.section	.text.error_indicator,"ax",%progbits
 424              		.align	1
 425              		.global	error_indicator
 426              		.syntax unified
 427              		.thumb
 428              		.thumb_func
 430              	error_indicator:
 431              	.LFB140:
  77:App/Src/error_indicator.c **** 
  78:App/Src/error_indicator.c **** 
  79:App/Src/error_indicator.c **** ///  @brief Indicate eroor code using LD3:
  80:App/Src/error_indicator.c **** /// 
  81:App/Src/error_indicator.c **** void error_indicator()
  82:App/Src/error_indicator.c **** {
 432              		.loc 1 82 1 is_stmt 1 view -0
 433              		.cfi_startproc
 434              		@ Volatile: function does not return.
 435              		@ args = 0, pretend = 0, frame = 0
 436              		@ frame_needed = 0, uses_anonymous_args = 0
 437 0000 08B5     		push	{r3, lr}
 438              	.LCFI2:
 439              		.cfi_def_cfa_offset 8
 440              		.cfi_offset 3, -8
 441              		.cfi_offset 14, -4
  83:App/Src/error_indicator.c ****     no_error();
 442              		.loc 1 83 5 view .LVU90
 443 0002 FFF7FEFF 		bl	no_error
ARM GAS  /tmp/ccbKDT3N.s 			page 11


 444              	.LVL62:
 445 0006 46E0     		b	.L36
 446              	.L25:
  84:App/Src/error_indicator.c ****     while(1)
  85:App/Src/error_indicator.c ****     {
  86:App/Src/error_indicator.c ****         if(rmw_err_code != RMW_RET_OK){
  87:App/Src/error_indicator.c ****             HAL_GPIO_WritePin(LD4_GPIO_Port, LD4_Pin, GPIO_PIN_RESET);
  88:App/Src/error_indicator.c ****             // blink once to indicate error is related to rmw
  89:App/Src/error_indicator.c ****             blink_error(3, 1, 400, 200);
  90:App/Src/error_indicator.c ****             // indicate rmw error code:
  91:App/Src/error_indicator.c ****             switch (rmw_err_code)
 447              		.loc 1 91 13 is_stmt 0 view .LVU91
 448 0008 CB2B     		cmp	r3, #203
 449 000a 41D1     		bne	.L26
  92:App/Src/error_indicator.c ****             {
  93:App/Src/error_indicator.c ****             /// Generic error to indicate operation could not complete successfully
  94:App/Src/error_indicator.c ****             case RMW_RET_ERROR:
  95:App/Src/error_indicator.c ****                 blink_error(3, 1, 200, 200); 
  96:App/Src/error_indicator.c ****                 break;
  97:App/Src/error_indicator.c ****             /// The operation was halted early because it exceeded its timeout critera
  98:App/Src/error_indicator.c ****             case RMW_RET_TIMEOUT:
  99:App/Src/error_indicator.c ****                 blink_error(3, 2, 200, 200); 
 100:App/Src/error_indicator.c ****                 break;
 101:App/Src/error_indicator.c ****             /// The operation or event handling is not supported.
 102:App/Src/error_indicator.c ****             case RMW_RET_UNSUPPORTED:
 103:App/Src/error_indicator.c ****                 blink_error(3, 3, 200, 200); 
 104:App/Src/error_indicator.c ****                 break;
 105:App/Src/error_indicator.c ****             /// Failed to allocate memory
 106:App/Src/error_indicator.c ****             case RMW_RET_BAD_ALLOC:
 107:App/Src/error_indicator.c ****                 blink_error(3, 4, 200, 200); 
 108:App/Src/error_indicator.c ****                 break;
 109:App/Src/error_indicator.c ****             /// Argument to function was invalid
 110:App/Src/error_indicator.c ****             case RMW_RET_INVALID_ARGUMENT: 
 111:App/Src/error_indicator.c ****                 blink_error(3, 5, 200, 200);
 112:App/Src/error_indicator.c ****                 break;
 113:App/Src/error_indicator.c ****             /// Incorrect rmw implementation.
 114:App/Src/error_indicator.c ****             case RMW_RET_INCORRECT_RMW_IMPLEMENTATION: 
 115:App/Src/error_indicator.c ****                 blink_error(3, 6, 200, 200);
 116:App/Src/error_indicator.c ****                 break;
 117:App/Src/error_indicator.c ****             // rmw node specific ret codes in 2XX 
 118:App/Src/error_indicator.c ****             /// Failed to find node name
 119:App/Src/error_indicator.c ****             // Using same return code than in rcl
 120:App/Src/error_indicator.c ****             case RMW_RET_NODE_NAME_NON_EXISTENT: 
 121:App/Src/error_indicator.c ****                 blink_error(3, 7, 200, 200);
 450              		.loc 1 121 17 is_stmt 1 view .LVU92
 451 000c C823     		movs	r3, #200
 452 000e 1A46     		mov	r2, r3
 453 0010 0721     		movs	r1, #7
 454 0012 0320     		movs	r0, #3
 455 0014 FFF7FEFF 		bl	blink_error
 456              	.LVL63:
 122:App/Src/error_indicator.c ****                 break;
 457              		.loc 1 122 17 view .LVU93
 458 0018 3AE0     		b	.L26
 459              	.L33:
  95:App/Src/error_indicator.c ****                 break;
 460              		.loc 1 95 17 view .LVU94
ARM GAS  /tmp/ccbKDT3N.s 			page 12


 461 001a C823     		movs	r3, #200
 462 001c 1A46     		mov	r2, r3
 463 001e 0121     		movs	r1, #1
 464 0020 0320     		movs	r0, #3
 465 0022 FFF7FEFF 		bl	blink_error
 466              	.LVL64:
  96:App/Src/error_indicator.c ****             /// The operation was halted early because it exceeded its timeout critera
 467              		.loc 1 96 17 view .LVU95
 468 0026 33E0     		b	.L26
 469              	.L32:
  99:App/Src/error_indicator.c ****                 break;
 470              		.loc 1 99 17 view .LVU96
 471 0028 C823     		movs	r3, #200
 472 002a 1A46     		mov	r2, r3
 473 002c 0221     		movs	r1, #2
 474 002e 0320     		movs	r0, #3
 475 0030 FFF7FEFF 		bl	blink_error
 476              	.LVL65:
 100:App/Src/error_indicator.c ****             /// The operation or event handling is not supported.
 477              		.loc 1 100 17 view .LVU97
 478 0034 2CE0     		b	.L26
 479              	.L31:
 103:App/Src/error_indicator.c ****                 break;
 480              		.loc 1 103 17 view .LVU98
 481 0036 C823     		movs	r3, #200
 482 0038 1A46     		mov	r2, r3
 483 003a 0321     		movs	r1, #3
 484 003c 0846     		mov	r0, r1
 485 003e FFF7FEFF 		bl	blink_error
 486              	.LVL66:
 104:App/Src/error_indicator.c ****             /// Failed to allocate memory
 487              		.loc 1 104 17 view .LVU99
 488 0042 25E0     		b	.L26
 489              	.L30:
 107:App/Src/error_indicator.c ****                 break;
 490              		.loc 1 107 17 view .LVU100
 491 0044 C823     		movs	r3, #200
 492 0046 1A46     		mov	r2, r3
 493 0048 0421     		movs	r1, #4
 494 004a 0320     		movs	r0, #3
 495 004c FFF7FEFF 		bl	blink_error
 496              	.LVL67:
 108:App/Src/error_indicator.c ****             /// Argument to function was invalid
 497              		.loc 1 108 17 view .LVU101
 498 0050 1EE0     		b	.L26
 499              	.L29:
 111:App/Src/error_indicator.c ****                 break;
 500              		.loc 1 111 17 view .LVU102
 501 0052 C823     		movs	r3, #200
 502 0054 1A46     		mov	r2, r3
 503 0056 0521     		movs	r1, #5
 504 0058 0320     		movs	r0, #3
 505 005a FFF7FEFF 		bl	blink_error
 506              	.LVL68:
 112:App/Src/error_indicator.c ****             /// Incorrect rmw implementation.
 507              		.loc 1 112 17 view .LVU103
 508 005e 17E0     		b	.L26
ARM GAS  /tmp/ccbKDT3N.s 			page 13


 509              	.L27:
 115:App/Src/error_indicator.c ****                 break;
 510              		.loc 1 115 17 view .LVU104
 511 0060 C823     		movs	r3, #200
 512 0062 1A46     		mov	r2, r3
 513 0064 0621     		movs	r1, #6
 514 0066 0320     		movs	r0, #3
 515 0068 FFF7FEFF 		bl	blink_error
 516              	.LVL69:
 116:App/Src/error_indicator.c ****             // rmw node specific ret codes in 2XX 
 517              		.loc 1 116 17 view .LVU105
 518 006c 10E0     		b	.L26
 519              	.L24:
 123:App/Src/error_indicator.c ****             default:
 124:App/Src/error_indicator.c ****                 break;
 125:App/Src/error_indicator.c ****             }
 126:App/Src/error_indicator.c ****         }
 127:App/Src/error_indicator.c ****         else if (rcl_err_code != RCL_RET_OK){
 520              		.loc 1 127 14 view .LVU106
 521              		.loc 1 127 31 is_stmt 0 view .LVU107
 522 006e 264B     		ldr	r3, .L38
 523 0070 1B68     		ldr	r3, [r3]
 524              		.loc 1 127 17 view .LVU108
 525 0072 002B     		cmp	r3, #0
 526 0074 44D0     		beq	.L35
 128:App/Src/error_indicator.c ****             HAL_GPIO_WritePin(LD4_GPIO_Port, LD4_Pin, GPIO_PIN_RESET);
 527              		.loc 1 128 13 is_stmt 1 view .LVU109
 528 0076 0022     		movs	r2, #0
 529 0078 4FF48051 		mov	r1, #4096
 530 007c 2348     		ldr	r0, .L38+4
 531 007e FFF7FEFF 		bl	HAL_GPIO_WritePin
 532              	.LVL70:
 129:App/Src/error_indicator.c ****             // blink twice to indicate the error is related to rcl
 130:App/Src/error_indicator.c ****             blink_error(3, 2, 400, 200);
 533              		.loc 1 130 13 view .LVU110
 534 0082 C823     		movs	r3, #200
 535 0084 4FF4C872 		mov	r2, #400
 536 0088 0221     		movs	r1, #2
 537 008a 0320     		movs	r0, #3
 538 008c FFF7FEFF 		bl	blink_error
 539              	.LVL71:
 540              	.L26:
 131:App/Src/error_indicator.c ****         }
 132:App/Src/error_indicator.c ****         else{
 133:App/Src/error_indicator.c ****             no_error();
 134:App/Src/error_indicator.c ****         }
 135:App/Src/error_indicator.c **** 
 136:App/Src/error_indicator.c ****     osDelay(10);
 541              		.loc 1 136 5 view .LVU111
 542 0090 0A20     		movs	r0, #10
 543 0092 FFF7FEFF 		bl	osDelay
 544              	.LVL72:
  84:App/Src/error_indicator.c ****     {
 545              		.loc 1 84 10 view .LVU112
 546              	.L36:
  84:App/Src/error_indicator.c ****     {
 547              		.loc 1 84 5 view .LVU113
ARM GAS  /tmp/ccbKDT3N.s 			page 14


  86:App/Src/error_indicator.c ****             HAL_GPIO_WritePin(LD4_GPIO_Port, LD4_Pin, GPIO_PIN_RESET);
 548              		.loc 1 86 9 view .LVU114
  86:App/Src/error_indicator.c ****             HAL_GPIO_WritePin(LD4_GPIO_Port, LD4_Pin, GPIO_PIN_RESET);
 549              		.loc 1 86 25 is_stmt 0 view .LVU115
 550 0096 1E4B     		ldr	r3, .L38+8
 551 0098 1B68     		ldr	r3, [r3]
  86:App/Src/error_indicator.c ****             HAL_GPIO_WritePin(LD4_GPIO_Port, LD4_Pin, GPIO_PIN_RESET);
 552              		.loc 1 86 11 view .LVU116
 553 009a 002B     		cmp	r3, #0
 554 009c E7D0     		beq	.L24
  87:App/Src/error_indicator.c ****             // blink once to indicate error is related to rmw
 555              		.loc 1 87 13 is_stmt 1 view .LVU117
 556 009e 0022     		movs	r2, #0
 557 00a0 4FF48051 		mov	r1, #4096
 558 00a4 1948     		ldr	r0, .L38+4
 559 00a6 FFF7FEFF 		bl	HAL_GPIO_WritePin
 560              	.LVL73:
  89:App/Src/error_indicator.c ****             // indicate rmw error code:
 561              		.loc 1 89 13 view .LVU118
 562 00aa C823     		movs	r3, #200
 563 00ac 4FF4C872 		mov	r2, #400
 564 00b0 0121     		movs	r1, #1
 565 00b2 0320     		movs	r0, #3
 566 00b4 FFF7FEFF 		bl	blink_error
 567              	.LVL74:
  91:App/Src/error_indicator.c ****             {
 568              		.loc 1 91 13 view .LVU119
 569 00b8 154B     		ldr	r3, .L38+8
 570 00ba 1B68     		ldr	r3, [r3]
 571 00bc 0C2B     		cmp	r3, #12
 572 00be A3DC     		bgt	.L25
 573 00c0 002B     		cmp	r3, #0
 574 00c2 E5DD     		ble	.L26
 575 00c4 013B     		subs	r3, r3, #1
 576 00c6 0B2B     		cmp	r3, #11
 577 00c8 E2D8     		bhi	.L26
 578 00ca 01A2     		adr	r2, .L28
 579 00cc 52F823F0 		ldr	pc, [r2, r3, lsl #2]
 580              		.p2align 2
 581              	.L28:
 582 00d0 1B000000 		.word	.L33+1
 583 00d4 29000000 		.word	.L32+1
 584 00d8 37000000 		.word	.L31+1
 585 00dc 91000000 		.word	.L26+1
 586 00e0 91000000 		.word	.L26+1
 587 00e4 91000000 		.word	.L26+1
 588 00e8 91000000 		.word	.L26+1
 589 00ec 91000000 		.word	.L26+1
 590 00f0 91000000 		.word	.L26+1
 591 00f4 45000000 		.word	.L30+1
 592 00f8 53000000 		.word	.L29+1
 593 00fc 61000000 		.word	.L27+1
 594              		.p2align 1
 595              	.L35:
 133:App/Src/error_indicator.c ****         }
 596              		.loc 1 133 13 view .LVU120
 597 0100 FFF7FEFF 		bl	no_error
ARM GAS  /tmp/ccbKDT3N.s 			page 15


 598              	.LVL75:
 599 0104 C4E7     		b	.L26
 600              	.L39:
 601 0106 00BF     		.align	2
 602              	.L38:
 603 0108 00000000 		.word	.LANCHOR1
 604 010c 000C0240 		.word	1073875968
 605 0110 00000000 		.word	.LANCHOR0
 606              		.cfi_endproc
 607              	.LFE140:
 609              		.global	rcl_err_code
 610              		.global	rmw_err_code
 611              		.section	.bss.rcl_err_code,"aw",%nobits
 612              		.align	2
 613              		.set	.LANCHOR1,. + 0
 616              	rcl_err_code:
 617 0000 00000000 		.space	4
 618              		.section	.bss.rmw_err_code,"aw",%nobits
 619              		.align	2
 620              		.set	.LANCHOR0,. + 0
 623              	rmw_err_code:
 624 0000 00000000 		.space	4
 625              		.text
 626              	.Letext0:
 627              		.file 2 "/usr/share/gcc-arm-none-eabi-10.3-2021.10/arm-none-eabi/include/machine/_default_types.h"
 628              		.file 3 "/usr/share/gcc-arm-none-eabi-10.3-2021.10/arm-none-eabi/include/sys/_stdint.h"
 629              		.file 4 "micro_ros_stm32cubemx_utils/microros_static_library/libmicroros/microros_include/rmw/ret_
 630              		.file 5 "micro_ros_stm32cubemx_utils/microros_static_library/libmicroros/microros_include/rcl/type
 631              		.file 6 "Drivers/CMSIS/Device/ST/STM32F4xx/Include/stm32f407xx.h"
 632              		.file 7 "App/Inc/error_indicator.h"
 633              		.file 8 "Drivers/STM32F4xx_HAL_Driver/Inc/stm32f4xx_hal_gpio.h"
 634              		.file 9 "Middlewares/Third_Party/FreeRTOS/Source/CMSIS_RTOS_V2/cmsis_os2.h"
 635              		.file 10 "micro_ros_stm32cubemx_utils/microros_static_library/libmicroros/microros_include/rcutils
ARM GAS  /tmp/ccbKDT3N.s 			page 16

