ARM GAS  /tmp/cc2NR5sI.s 			page 1


   1              		.cpu cortex-m4
   2              		.arch armv7e-m
   3              		.fpu fpv4-sp-d16
   4              		.eabi_attribute 27, 1
   5              		.eabi_attribute 28, 1
   6              		.eabi_attribute 20, 1
   7              		.eabi_attribute 21, 1
   8              		.eabi_attribute 23, 3
   9              		.eabi_attribute 24, 1
  10              		.eabi_attribute 25, 1
  11              		.eabi_attribute 26, 1
  12              		.eabi_attribute 30, 1
  13              		.eabi_attribute 34, 1
  14              		.eabi_attribute 18, 4
  15              		.file	"uros_tasks.c"
  16              		.text
  17              	.Ltext0:
  18              		.cfi_sections	.debug_frame
  19              		.section	.rodata.init_uros_node.str1.4,"aMS",%progbits,1
  20              		.align	2
  21              	.LC0:
  22 0000 4572726F 		.ascii	"Error on default allocators (line %d)\012\000"
  22      72206F6E 
  22      20646566 
  22      61756C74 
  22      20616C6C 
  23 0027 00       		.align	2
  24              	.LC1:
  25 0028 00       		.ascii	"\000"
  26 0029 000000   		.align	2
  27              	.LC2:
  28 002c 6D6F746F 		.ascii	"motor_node\000"
  28      725F6E6F 
  28      646500
  29 0037 00       		.align	2
  30              	.LC3:
  31 0038 6D6F746F 		.ascii	"motor_feedback\000"
  31      725F6665 
  31      65646261 
  31      636B00
  32              		.section	.text.init_uros_node,"ax",%progbits
  33              		.align	1
  34              		.global	init_uros_node
  35              		.syntax unified
  36              		.thumb
  37              		.thumb_func
  39              	init_uros_node:
  40              	.LFB138:
  41              		.file 1 "App/Src/uros_tasks.c"
   1:App/Src/uros_tasks.c **** #include <stdio.h>
   2:App/Src/uros_tasks.c **** #include <string.h>
   3:App/Src/uros_tasks.c **** #include "usart.h"
   4:App/Src/uros_tasks.c **** 
   5:App/Src/uros_tasks.c **** #include "uros_tasks.h"
   6:App/Src/uros_tasks.c **** 
   7:App/Src/uros_tasks.c **** 
   8:App/Src/uros_tasks.c **** rcl_allocator_t allocator;
ARM GAS  /tmp/cc2NR5sI.s 			page 2


   9:App/Src/uros_tasks.c **** rclc_support_t support;
  10:App/Src/uros_tasks.c **** rcl_node_t node;
  11:App/Src/uros_tasks.c **** rcl_publisher_t publisher;
  12:App/Src/uros_tasks.c **** std_msgs__msg__Int32 msg;
  13:App/Src/uros_tasks.c **** std_msgs__msg__Float32MultiArray motor_feedback_msg;
  14:App/Src/uros_tasks.c **** 
  15:App/Src/uros_tasks.c **** rmw_ret_t ret_rmw;
  16:App/Src/uros_tasks.c **** rcl_ret_t ret_rcl;
  17:App/Src/uros_tasks.c **** 
  18:App/Src/uros_tasks.c **** void init_uros_node()
  19:App/Src/uros_tasks.c **** {
  42              		.loc 1 19 1 view -0
  43              		.cfi_startproc
  44              		@ args = 0, pretend = 0, frame = 48
  45              		@ frame_needed = 0, uses_anonymous_args = 0
  46 0000 70B5     		push	{r4, r5, r6, lr}
  47              	.LCFI0:
  48              		.cfi_def_cfa_offset 16
  49              		.cfi_offset 4, -16
  50              		.cfi_offset 5, -12
  51              		.cfi_offset 6, -8
  52              		.cfi_offset 14, -4
  53 0002 8EB0     		sub	sp, sp, #56
  54              	.LCFI1:
  55              		.cfi_def_cfa_offset 72
  20:App/Src/uros_tasks.c ****     // micro-ROS configuration
  21:App/Src/uros_tasks.c ****     rmw_err_code = rmw_uros_set_custom_transport(
  56              		.loc 1 21 5 view .LVU1
  57              		.loc 1 21 20 is_stmt 0 view .LVU2
  58 0004 254B     		ldr	r3, .L5
  59 0006 0193     		str	r3, [sp, #4]
  60 0008 254B     		ldr	r3, .L5+4
  61 000a 0093     		str	r3, [sp]
  62 000c 254B     		ldr	r3, .L5+8
  63 000e 264A     		ldr	r2, .L5+12
  64 0010 2649     		ldr	r1, .L5+16
  65 0012 0120     		movs	r0, #1
  66 0014 FFF7FEFF 		bl	rmw_uros_set_custom_transport
  67              	.LVL0:
  68              		.loc 1 21 18 view .LVU3
  69 0018 254B     		ldr	r3, .L5+20
  70 001a 1860     		str	r0, [r3]
  22:App/Src/uros_tasks.c ****                 true,
  23:App/Src/uros_tasks.c ****                 (void *) &huart2,
  24:App/Src/uros_tasks.c ****                 cubemx_transport_open,
  25:App/Src/uros_tasks.c ****                 cubemx_transport_close,
  26:App/Src/uros_tasks.c ****                 cubemx_transport_write,
  27:App/Src/uros_tasks.c ****                 cubemx_transport_read);
  28:App/Src/uros_tasks.c **** 
  29:App/Src/uros_tasks.c ****     rcl_allocator_t freeRTOS_allocator = rcutils_get_zero_initialized_allocator();
  71              		.loc 1 29 5 is_stmt 1 view .LVU4
  72              		.loc 1 29 42 is_stmt 0 view .LVU5
  73 001c 09A8     		add	r0, sp, #36
  74 001e FFF7FEFF 		bl	rcutils_get_zero_initialized_allocator
  75              	.LVL1:
  30:App/Src/uros_tasks.c ****     freeRTOS_allocator.allocate = microros_allocate;
  76              		.loc 1 30 5 is_stmt 1 view .LVU6
ARM GAS  /tmp/cc2NR5sI.s 			page 3


  77              		.loc 1 30 33 is_stmt 0 view .LVU7
  78 0022 244B     		ldr	r3, .L5+24
  79 0024 0993     		str	r3, [sp, #36]
  31:App/Src/uros_tasks.c ****     freeRTOS_allocator.deallocate = microros_deallocate;
  80              		.loc 1 31 5 is_stmt 1 view .LVU8
  81              		.loc 1 31 35 is_stmt 0 view .LVU9
  82 0026 244B     		ldr	r3, .L5+28
  83 0028 0A93     		str	r3, [sp, #40]
  32:App/Src/uros_tasks.c ****     freeRTOS_allocator.reallocate = microros_reallocate;
  84              		.loc 1 32 5 is_stmt 1 view .LVU10
  85              		.loc 1 32 35 is_stmt 0 view .LVU11
  86 002a 244B     		ldr	r3, .L5+32
  87 002c 0B93     		str	r3, [sp, #44]
  33:App/Src/uros_tasks.c ****     freeRTOS_allocator.zero_allocate =  microros_zero_allocate;
  88              		.loc 1 33 5 is_stmt 1 view .LVU12
  89              		.loc 1 33 38 is_stmt 0 view .LVU13
  90 002e 244B     		ldr	r3, .L5+36
  91 0030 0C93     		str	r3, [sp, #48]
  34:App/Src/uros_tasks.c **** 
  35:App/Src/uros_tasks.c ****     if (!rcutils_set_default_allocator(&freeRTOS_allocator)) {
  92              		.loc 1 35 5 is_stmt 1 view .LVU14
  93              		.loc 1 35 10 is_stmt 0 view .LVU15
  94 0032 09A8     		add	r0, sp, #36
  95 0034 FFF7FEFF 		bl	rcutils_set_default_allocator
  96              	.LVL2:
  97              		.loc 1 35 8 view .LVU16
  98 0038 50B3     		cbz	r0, .L4
  99              	.L2:
  36:App/Src/uros_tasks.c ****         printf("Error on default allocators (line %d)\n", __LINE__); 
  37:App/Src/uros_tasks.c ****     }
  38:App/Src/uros_tasks.c **** 
  39:App/Src/uros_tasks.c ****     // micro-ROS app
  40:App/Src/uros_tasks.c ****     allocator = rcl_get_default_allocator();
 100              		.loc 1 40 5 is_stmt 1 view .LVU17
 101              		.loc 1 40 17 is_stmt 0 view .LVU18
 102 003a 224C     		ldr	r4, .L5+40
 103 003c 02A8     		add	r0, sp, #8
 104 003e FFF7FEFF 		bl	rcutils_get_default_allocator
 105              	.LVL3:
 106 0042 A646     		mov	lr, r4
 107 0044 0DF1080C 		add	ip, sp, #8
 108 0048 BCE80F00 		ldmia	ip!, {r0, r1, r2, r3}
 109 004c AEE80F00 		stmia	lr!, {r0, r1, r2, r3}
 110 0050 DCF80030 		ldr	r3, [ip]
 111 0054 CEF80030 		str	r3, [lr]
  41:App/Src/uros_tasks.c **** 
  42:App/Src/uros_tasks.c ****     //create init_options
  43:App/Src/uros_tasks.c ****     rcl_err_code = rclc_support_init(&support, 0, NULL, &allocator);
 112              		.loc 1 43 5 is_stmt 1 view .LVU19
 113              		.loc 1 43 20 is_stmt 0 view .LVU20
 114 0058 1B4E     		ldr	r6, .L5+44
 115 005a 2346     		mov	r3, r4
 116 005c 0022     		movs	r2, #0
 117 005e 1146     		mov	r1, r2
 118 0060 3046     		mov	r0, r6
 119 0062 FFF7FEFF 		bl	rclc_support_init
 120              	.LVL4:
ARM GAS  /tmp/cc2NR5sI.s 			page 4


 121              		.loc 1 43 18 view .LVU21
 122 0066 194C     		ldr	r4, .L5+48
 123 0068 2060     		str	r0, [r4]
  44:App/Src/uros_tasks.c **** 
  45:App/Src/uros_tasks.c ****     // create node
  46:App/Src/uros_tasks.c ****     rcl_err_code = rclc_node_init_default(&node, "motor_node", "", &support);
 124              		.loc 1 46 5 is_stmt 1 view .LVU22
 125              		.loc 1 46 20 is_stmt 0 view .LVU23
 126 006a 194D     		ldr	r5, .L5+52
 127 006c 3346     		mov	r3, r6
 128 006e 194A     		ldr	r2, .L5+56
 129 0070 1949     		ldr	r1, .L5+60
 130 0072 2846     		mov	r0, r5
 131 0074 FFF7FEFF 		bl	rclc_node_init_default
 132              	.LVL5:
 133              		.loc 1 46 18 view .LVU24
 134 0078 2060     		str	r0, [r4]
  47:App/Src/uros_tasks.c **** 
  48:App/Src/uros_tasks.c ****     // create publisher
  49:App/Src/uros_tasks.c ****     rcl_err_code = rclc_publisher_init_default(
 135              		.loc 1 49 5 is_stmt 1 view .LVU25
 136              		.loc 1 49 20 is_stmt 0 view .LVU26
 137 007a FFF7FEFF 		bl	rosidl_typesupport_c__get_message_type_support_handle__std_msgs__msg__Float32MultiArray
 138              	.LVL6:
 139 007e 0246     		mov	r2, r0
 140 0080 164B     		ldr	r3, .L5+64
 141 0082 2946     		mov	r1, r5
 142 0084 1648     		ldr	r0, .L5+68
 143 0086 FFF7FEFF 		bl	rclc_publisher_init_default
 144              	.LVL7:
 145              		.loc 1 49 18 view .LVU27
 146 008a 2060     		str	r0, [r4]
  50:App/Src/uros_tasks.c ****                     &publisher,
  51:App/Src/uros_tasks.c ****                     &node,
  52:App/Src/uros_tasks.c ****                     ROSIDL_GET_MSG_TYPE_SUPPORT(std_msgs, msg, Float32MultiArray),
  53:App/Src/uros_tasks.c ****                     "motor_feedback");
  54:App/Src/uros_tasks.c **** 
  55:App/Src/uros_tasks.c **** }
 147              		.loc 1 55 1 view .LVU28
 148 008c 0EB0     		add	sp, sp, #56
 149              	.LCFI2:
 150              		.cfi_remember_state
 151              		.cfi_def_cfa_offset 16
 152              		@ sp needed
 153 008e 70BD     		pop	{r4, r5, r6, pc}
 154              	.L4:
 155              	.LCFI3:
 156              		.cfi_restore_state
  36:App/Src/uros_tasks.c ****     }
 157              		.loc 1 36 9 is_stmt 1 view .LVU29
 158 0090 2421     		movs	r1, #36
 159 0092 1448     		ldr	r0, .L5+72
 160 0094 FFF7FEFF 		bl	printf
 161              	.LVL8:
 162 0098 CFE7     		b	.L2
 163              	.L6:
 164 009a 00BF     		.align	2
ARM GAS  /tmp/cc2NR5sI.s 			page 5


 165              	.L5:
 166 009c 00000000 		.word	cubemx_transport_read
 167 00a0 00000000 		.word	cubemx_transport_write
 168 00a4 00000000 		.word	cubemx_transport_close
 169 00a8 00000000 		.word	cubemx_transport_open
 170 00ac 00000000 		.word	huart2
 171 00b0 00000000 		.word	rmw_err_code
 172 00b4 00000000 		.word	microros_allocate
 173 00b8 00000000 		.word	microros_deallocate
 174 00bc 00000000 		.word	microros_reallocate
 175 00c0 00000000 		.word	microros_zero_allocate
 176 00c4 00000000 		.word	.LANCHOR0
 177 00c8 00000000 		.word	.LANCHOR1
 178 00cc 00000000 		.word	rcl_err_code
 179 00d0 00000000 		.word	.LANCHOR2
 180 00d4 28000000 		.word	.LC1
 181 00d8 2C000000 		.word	.LC2
 182 00dc 38000000 		.word	.LC3
 183 00e0 00000000 		.word	.LANCHOR3
 184 00e4 00000000 		.word	.LC0
 185              		.cfi_endproc
 186              	.LFE138:
 188              		.section	.rodata.spin_uros_node.str1.4,"aMS",%progbits,1
 189              		.align	2
 190              	.LC4:
 191 0000 4572726F 		.ascii	"Error publishing (line %d)\012\000"
 191      72207075 
 191      626C6973 
 191      68696E67 
 191      20286C69 
 192              		.section	.text.spin_uros_node,"ax",%progbits
 193              		.align	1
 194              		.global	spin_uros_node
 195              		.syntax unified
 196              		.thumb
 197              		.thumb_func
 199              	spin_uros_node:
 200              	.LVL9:
 201              	.LFB139:
  56:App/Src/uros_tasks.c **** 
  57:App/Src/uros_tasks.c **** 
  58:App/Src/uros_tasks.c **** void spin_uros_node(int os_delay)
  59:App/Src/uros_tasks.c **** {
 202              		.loc 1 59 1 view -0
 203              		.cfi_startproc
 204              		@ args = 0, pretend = 0, frame = 0
 205              		@ frame_needed = 0, uses_anonymous_args = 0
 206              		.loc 1 59 1 is_stmt 0 view .LVU31
 207 0000 10B5     		push	{r4, lr}
 208              	.LCFI4:
 209              		.cfi_def_cfa_offset 8
 210              		.cfi_offset 4, -8
 211              		.cfi_offset 14, -4
 212 0002 0446     		mov	r4, r0
  60:App/Src/uros_tasks.c ****     msg.data = 0;
 213              		.loc 1 60 5 is_stmt 1 view .LVU32
 214              		.loc 1 60 14 is_stmt 0 view .LVU33
ARM GAS  /tmp/cc2NR5sI.s 			page 6


 215 0004 114B     		ldr	r3, .L14
 216 0006 0022     		movs	r2, #0
 217 0008 1A60     		str	r2, [r3]
 218 000a 10E0     		b	.L11
 219              	.LVL10:
 220              	.L13:
  61:App/Src/uros_tasks.c ****     while(1)
  62:App/Src/uros_tasks.c ****     {
  63:App/Src/uros_tasks.c ****         rcl_err_code = rcl_publish(&publisher, &motor_feedback_msg, NULL);
  64:App/Src/uros_tasks.c ****         if (rcl_err_code != RCL_RET_OK)
  65:App/Src/uros_tasks.c ****         {
  66:App/Src/uros_tasks.c ****         printf("Error publishing (line %d)\n", __LINE__); 
 221              		.loc 1 66 9 is_stmt 1 view .LVU34
 222 000c 4221     		movs	r1, #66
 223 000e 1048     		ldr	r0, .L14+4
 224 0010 FFF7FEFF 		bl	printf
 225              	.LVL11:
 226 0014 14E0     		b	.L8
 227              	.LVL12:
 228              	.L10:
 229              	.LBB2:
  67:App/Src/uros_tasks.c ****         }
  68:App/Src/uros_tasks.c ****         motor_feedback_msg.data.size = 6;
  69:App/Src/uros_tasks.c ****         for(int i=0; i<6; i++){
  70:App/Src/uros_tasks.c ****             motor_feedback_msg.data.data[i] = 10.0; // can_rx_data[i]
 230              		.loc 1 70 13 discriminator 3 view .LVU35
 231              		.loc 1 70 36 is_stmt 0 discriminator 3 view .LVU36
 232 0016 0F4A     		ldr	r2, .L14+8
 233 0018 1269     		ldr	r2, [r2, #16]
 234              		.loc 1 70 41 discriminator 3 view .LVU37
 235 001a 02EB8302 		add	r2, r2, r3, lsl #2
 236              		.loc 1 70 45 discriminator 3 view .LVU38
 237 001e 0E49     		ldr	r1, .L14+12
 238 0020 1160     		str	r1, [r2]	@ float
  69:App/Src/uros_tasks.c ****             motor_feedback_msg.data.data[i] = 10.0; // can_rx_data[i]
 239              		.loc 1 69 27 is_stmt 1 discriminator 3 view .LVU39
  69:App/Src/uros_tasks.c ****             motor_feedback_msg.data.data[i] = 10.0; // can_rx_data[i]
 240              		.loc 1 69 28 is_stmt 0 discriminator 3 view .LVU40
 241 0022 0133     		adds	r3, r3, #1
 242              	.LVL13:
 243              	.L9:
  69:App/Src/uros_tasks.c ****             motor_feedback_msg.data.data[i] = 10.0; // can_rx_data[i]
 244              		.loc 1 69 22 is_stmt 1 discriminator 1 view .LVU41
  69:App/Src/uros_tasks.c ****             motor_feedback_msg.data.data[i] = 10.0; // can_rx_data[i]
 245              		.loc 1 69 9 is_stmt 0 discriminator 1 view .LVU42
 246 0024 052B     		cmp	r3, #5
 247 0026 F6DD     		ble	.L10
 248              	.LBE2:
  71:App/Src/uros_tasks.c ****         }
  72:App/Src/uros_tasks.c ****         
  73:App/Src/uros_tasks.c ****         osDelay(os_delay);
 249              		.loc 1 73 9 is_stmt 1 view .LVU43
 250 0028 2046     		mov	r0, r4
 251 002a FFF7FEFF 		bl	osDelay
 252              	.LVL14:
  61:App/Src/uros_tasks.c ****     {
 253              		.loc 1 61 10 view .LVU44
ARM GAS  /tmp/cc2NR5sI.s 			page 7


 254              	.L11:
  61:App/Src/uros_tasks.c ****     {
 255              		.loc 1 61 5 view .LVU45
  63:App/Src/uros_tasks.c ****         if (rcl_err_code != RCL_RET_OK)
 256              		.loc 1 63 9 view .LVU46
  63:App/Src/uros_tasks.c ****         if (rcl_err_code != RCL_RET_OK)
 257              		.loc 1 63 24 is_stmt 0 view .LVU47
 258 002e 0022     		movs	r2, #0
 259 0030 0849     		ldr	r1, .L14+8
 260 0032 0A48     		ldr	r0, .L14+16
 261 0034 FFF7FEFF 		bl	rcl_publish
 262              	.LVL15:
  63:App/Src/uros_tasks.c ****         if (rcl_err_code != RCL_RET_OK)
 263              		.loc 1 63 22 view .LVU48
 264 0038 094B     		ldr	r3, .L14+20
 265 003a 1860     		str	r0, [r3]
  64:App/Src/uros_tasks.c ****         {
 266              		.loc 1 64 9 is_stmt 1 view .LVU49
  64:App/Src/uros_tasks.c ****         {
 267              		.loc 1 64 12 is_stmt 0 view .LVU50
 268 003c 0028     		cmp	r0, #0
 269 003e E5D1     		bne	.L13
 270              	.L8:
  68:App/Src/uros_tasks.c ****         for(int i=0; i<6; i++){
 271              		.loc 1 68 9 is_stmt 1 view .LVU51
  68:App/Src/uros_tasks.c ****         for(int i=0; i<6; i++){
 272              		.loc 1 68 38 is_stmt 0 view .LVU52
 273 0040 044B     		ldr	r3, .L14+8
 274 0042 0622     		movs	r2, #6
 275 0044 5A61     		str	r2, [r3, #20]
  69:App/Src/uros_tasks.c ****             motor_feedback_msg.data.data[i] = 10.0; // can_rx_data[i]
 276              		.loc 1 69 9 is_stmt 1 view .LVU53
 277              	.LBB3:
  69:App/Src/uros_tasks.c ****             motor_feedback_msg.data.data[i] = 10.0; // can_rx_data[i]
 278              		.loc 1 69 13 view .LVU54
 279              	.LVL16:
  69:App/Src/uros_tasks.c ****             motor_feedback_msg.data.data[i] = 10.0; // can_rx_data[i]
 280              		.loc 1 69 17 is_stmt 0 view .LVU55
 281 0046 0023     		movs	r3, #0
  69:App/Src/uros_tasks.c ****             motor_feedback_msg.data.data[i] = 10.0; // can_rx_data[i]
 282              		.loc 1 69 9 view .LVU56
 283 0048 ECE7     		b	.L9
 284              	.L15:
 285 004a 00BF     		.align	2
 286              	.L14:
 287 004c 00000000 		.word	.LANCHOR4
 288 0050 00000000 		.word	.LC4
 289 0054 00000000 		.word	.LANCHOR5
 290 0058 00002041 		.word	1092616192
 291 005c 00000000 		.word	.LANCHOR3
 292 0060 00000000 		.word	rcl_err_code
 293              	.LBE3:
 294              		.cfi_endproc
 295              	.LFE139:
 297              		.global	ret_rcl
 298              		.global	ret_rmw
 299              		.global	motor_feedback_msg
ARM GAS  /tmp/cc2NR5sI.s 			page 8


 300              		.global	msg
 301              		.global	publisher
 302              		.global	node
 303              		.global	support
 304              		.global	allocator
 305              		.section	.bss.allocator,"aw",%nobits
 306              		.align	2
 307              		.set	.LANCHOR0,. + 0
 310              	allocator:
 311 0000 00000000 		.space	20
 311      00000000 
 311      00000000 
 311      00000000 
 311      00000000 
 312              		.section	.bss.motor_feedback_msg,"aw",%nobits
 313              		.align	2
 314              		.set	.LANCHOR5,. + 0
 317              	motor_feedback_msg:
 318 0000 00000000 		.space	28
 318      00000000 
 318      00000000 
 318      00000000 
 318      00000000 
 319              		.section	.bss.msg,"aw",%nobits
 320              		.align	2
 321              		.set	.LANCHOR4,. + 0
 324              	msg:
 325 0000 00000000 		.space	4
 326              		.section	.bss.node,"aw",%nobits
 327              		.align	2
 328              		.set	.LANCHOR2,. + 0
 331              	node:
 332 0000 00000000 		.space	8
 332      00000000 
 333              		.section	.bss.publisher,"aw",%nobits
 334              		.align	2
 335              		.set	.LANCHOR3,. + 0
 338              	publisher:
 339 0000 00000000 		.space	4
 340              		.section	.bss.ret_rcl,"aw",%nobits
 341              		.align	2
 344              	ret_rcl:
 345 0000 00000000 		.space	4
 346              		.section	.bss.ret_rmw,"aw",%nobits
 347              		.align	2
 350              	ret_rmw:
 351 0000 00000000 		.space	4
 352              		.section	.bss.support,"aw",%nobits
 353              		.align	2
 354              		.set	.LANCHOR1,. + 0
 357              	support:
 358 0000 00000000 		.space	56
 358      00000000 
 358      00000000 
 358      00000000 
 358      00000000 
 359              		.text
ARM GAS  /tmp/cc2NR5sI.s 			page 9


 360              	.Letext0:
 361              		.file 2 "/usr/share/gcc-arm-none-eabi-10.3-2021.10/arm-none-eabi/include/machine/_default_types.h"
 362              		.file 3 "/usr/share/gcc-arm-none-eabi-10.3-2021.10/lib/gcc/arm-none-eabi/10.3.1/include/stddef.h"
 363              		.file 4 "/usr/share/gcc-arm-none-eabi-10.3-2021.10/arm-none-eabi/include/sys/_stdint.h"
 364              		.file 5 "Drivers/CMSIS/Device/ST/STM32F4xx/Include/stm32f407xx.h"
 365              		.file 6 "Drivers/STM32F4xx_HAL_Driver/Inc/stm32f4xx_hal_def.h"
 366              		.file 7 "Drivers/STM32F4xx_HAL_Driver/Inc/stm32f4xx_hal_dma.h"
 367              		.file 8 "Drivers/STM32F4xx_HAL_Driver/Inc/stm32f4xx_hal_uart.h"
 368              		.file 9 "micro_ros_stm32cubemx_utils/microros_static_library/libmicroros/microros_include/rcutils/
 369              		.file 10 "micro_ros_stm32cubemx_utils/microros_static_library/libmicroros/microros_include/rcl/all
 370              		.file 11 "micro_ros_stm32cubemx_utils/microros_static_library/libmicroros/microros_include/rmw/ret
 371              		.file 12 "micro_ros_stm32cubemx_utils/microros_static_library/libmicroros/microros_include/rcutils
 372              		.file 13 "micro_ros_stm32cubemx_utils/microros_static_library/libmicroros/microros_include/rmw/typ
 373              		.file 14 "micro_ros_stm32cubemx_utils/microros_static_library/libmicroros/microros_include/rcl/typ
 374              		.file 15 "micro_ros_stm32cubemx_utils/microros_static_library/libmicroros/microros_include/rcl/ini
 375              		.file 16 "micro_ros_stm32cubemx_utils/microros_static_library/libmicroros/microros_include/rcl/con
 376              		.file 17 "micro_ros_stm32cubemx_utils/microros_static_library/libmicroros/microros_include/rcl/nod
 377              		.file 18 "micro_ros_stm32cubemx_utils/microros_static_library/libmicroros/microros_include/rcl/pub
 378              		.file 19 "micro_ros_stm32cubemx_utils/microros_static_library/libmicroros/microros_include/rcl/tim
 379              		.file 20 "micro_ros_stm32cubemx_utils/microros_static_library/libmicroros/microros_include/rmw/qos
 380              		.file 21 "micro_ros_stm32cubemx_utils/microros_static_library/libmicroros/microros_include/rclc/ty
 381              		.file 22 "micro_ros_stm32cubemx_utils/microros_static_library/libmicroros/microros_include/std_msg
 382              		.file 23 "micro_ros_stm32cubemx_utils/microros_static_library/libmicroros/microros_include/rosidl_
 383              		.file 24 "micro_ros_stm32cubemx_utils/microros_static_library/libmicroros/microros_include/rosidl_
 384              		.file 25 "micro_ros_stm32cubemx_utils/microros_static_library/libmicroros/microros_include/std_msg
 385              		.file 26 "micro_ros_stm32cubemx_utils/microros_static_library/libmicroros/microros_include/std_msg
 386              		.file 27 "micro_ros_stm32cubemx_utils/microros_static_library/libmicroros/microros_include/std_msg
 387              		.file 28 "Core/Inc/usart.h"
 388              		.file 29 "App/Inc/error_indicator.h"
 389              		.file 30 "App/Inc/uros_tasks.h"
 390              		.file 31 "/usr/share/gcc-arm-none-eabi-10.3-2021.10/arm-none-eabi/include/stdio.h"
 391              		.file 32 "Middlewares/Third_Party/FreeRTOS/Source/CMSIS_RTOS_V2/cmsis_os2.h"
 392              		.file 33 "micro_ros_stm32cubemx_utils/microros_static_library/libmicroros/microros_include/rmw_mic
 393              		.file 34 "micro_ros_stm32cubemx_utils/microros_static_library/libmicroros/microros_include/rclc/in
 394              		.file 35 "micro_ros_stm32cubemx_utils/microros_static_library/libmicroros/microros_include/rclc/no
 395              		.file 36 "micro_ros_stm32cubemx_utils/microros_static_library/libmicroros/microros_include/std_msg
 396              		.file 37 "micro_ros_stm32cubemx_utils/microros_static_library/libmicroros/microros_include/rclc/pu
ARM GAS  /tmp/cc2NR5sI.s 			page 10

